ccopy_reg
_reconstructor
p0
(cFWCore.ParameterSet.Config
Process
p1
c__builtin__
object
p2
Ntp3
Rp4
(dp5
V_Process__name
p6
VRPCTnP
p7
sV_Process__filters
p8
(dp9
sV_Process__producers
p10
(dp11
VmuRPCTnPFlatTableProducer
p12
g0
(cFWCore.ParameterSet.Modules
EDProducer
p13
g2
Ntp14
Rp15
(dp16
V_TypedParameterizable__type
p17
VMuRPCTnPFlatTableProducer
p18
sV_Parameterizable__parameterNames
p19
(lp20
Vname
p21
aVprimaryVertexCollectionTag
p22
aVtriggerResultsTag
p23
aVtriggerEventTag
p24
aVmuonCollectionTag
p25
aVrpcRecHitCollectionTag
p26
aVtagMuonMinPt
p27
aVtagMuonMaxAbsEta
p28
aVtagMuonIdType
p29
aVtagMuonMaxRelIso
p30
aVtagMuonTriggerMatchingPaths
p31
aVtagMuonTriggerMatchingMaxDeltaR
p32
aVtagMuonTriggerMatchingMaxDeltaPtRel
p33
aVprobeMuonMinPt
p34
aVprobeMuonMaxAbsEta
p35
aVprobeMuonIdType
p36
aVdimuonCheckOppositeSign
p37
aVdimuonMinDeltaR
p38
aVdimuonMinMass
p39
aVdimuonMaxMass
p40
aVmightGet
p41
asV_isFrozen
p42
I00
sV_Parameterizable__validator
p43
Nsg21
g0
(cFWCore.ParameterSet.Types
string
p44
g2
Ntp45
Rp46
(dp47
g42
I00
sV_ParameterTypeBase__isTracked
p48
I01
sV_isModified
p49
I00
sV_value
p50
VrpcTnP
p51
sbsg49
I01
sg22
g0
(cFWCore.ParameterSet.Types
InputTag
p52
g2
Ntp53
Rp54
(dp55
g42
I00
sg48
I01
sg49
I00
sV_InputTag__moduleLabel
p56
VofflinePrimaryVertices
p57
sV_InputTag__productInstance
p58
V
p59
sV_InputTag__processName
p60
g59
sbsg23
g0
(g52
g2
Ntp61
Rp62
(dp63
g42
I00
sg48
I01
sg49
I00
sg56
VTriggerResults
p64
sg58
g59
sg60
VHLT
p65
sbsg24
g0
(g52
g2
Ntp66
Rp67
(dp68
g42
I00
sg48
I01
sg49
I00
sg56
VhltTriggerSummaryAOD
p69
sg58
g59
sg60
g65
sbsg25
g0
(g52
g2
Ntp70
Rp71
(dp72
g42
I00
sg48
I01
sg49
I00
sg56
Vmuons
p73
sg58
g59
sg60
g59
sbsg26
g0
(g52
g2
Ntp74
Rp75
(dp76
g42
I00
sg48
I01
sg49
I00
sg56
VrpcRecHits
p77
sg58
g59
sg60
g59
sbsg27
g0
(cFWCore.ParameterSet.Types
double
p78
g2
Ntp79
Rp80
(dp81
g42
I00
sg48
I01
sg49
I00
sg50
I30
sbsg28
g0
(g78
g2
Ntp82
Rp83
(dp84
g42
I00
sg48
I01
sg49
I00
sg50
F2.4
sbsg29
g0
(g44
g2
Ntp85
Rp86
(dp87
g42
I00
sg48
I01
sg49
I00
sg50
Vtight
p88
sbsg30
g0
(g78
g2
Ntp89
Rp90
(dp91
g42
I00
sg48
I01
sg49
I00
sg50
F0.25
sbsg31
g0
(cFWCore.ParameterSet.Types
vstring
p92
c__builtin__
list
p93
(lp94
VHLT_IsoMu24
p95
aVHLT_IsoMu27
p96
aVHLT_IsoMu30
p97
aVHLT_Mu50
p98
aVHLT_Mu55
p99
atp100
Rp101
(dp102
g42
I00
sg48
I01
sg49
I01
sV_nPerLine
p103
I1
sbsg32
g0
(g78
g2
Ntp104
Rp105
(dp106
g42
I00
sg48
I01
sg49
I00
sg50
F0.1
sbsg33
g0
(g78
g2
Ntp107
Rp108
(dp109
g42
I00
sg48
I01
sg49
I00
sg50
F0.5
sbsg34
g0
(g78
g2
Ntp110
Rp111
(dp112
g42
I00
sg48
I01
sg49
I00
sg50
I10
sbsg35
g0
(g78
g2
Ntp113
Rp114
(dp115
g42
I00
sg48
I01
sg49
I00
sg50
F2.1
sbsg36
g0
(g44
g2
Ntp116
Rp117
(dp118
g42
I00
sg48
I01
sg49
I00
sg50
Vtracker
p119
sbsg37
g0
(cFWCore.ParameterSet.Types
bool
p120
g2
Ntp121
Rp122
(dp123
g42
I00
sg48
I01
sg49
I00
sg50
I01
sbsg38
g0
(g78
g2
Ntp124
Rp125
(dp126
g42
I00
sg48
I01
sg49
I00
sg50
F0.1
sbsg39
g0
(g78
g2
Ntp127
Rp128
(dp129
g42
I00
sg48
I01
sg49
I00
sg50
I70
sbsg40
g0
(g78
g2
Ntp130
Rp131
(dp132
g42
I00
sg48
I01
sg49
I00
sg50
I110
sbsg41
g0
(cFWCore.ParameterSet.Types
_OptionalParameter
p133
g2
Ntp134
Rp135
(dp136
g42
I00
sg48
I00
sg49
I00
sV_ProxyParameter__type
p137
g92
sV_ProxyParameter__value
p138
NsbsV_filename
p139
V/u/user/sjws5411/Workspace/Efficiency/CMSSW_14_1_0_pre2/cfipython/slc7_amd64_gcc12/DPGAnalysis/MuonTools/muRPCTnPFlatTableProducer_cfi.py
p140
sV_lineNumber
p141
I3
sV_Labelable__label
p142
g12
sbssV_Process__switchproducers
p143
(dp144
sV_Process__source
p145
g0
(cFWCore.ParameterSet.Modules
Source
p146
g2
Ntp147
Rp148
(dp149
g17
VPoolSource
p150
sg19
(lp151
VfileNames
p152
aVsecondaryFileNames
p153
aVinputCommands
p154
asg42
I00
sg43
Nsg152
g0
(g92
g93
(lp155
tp156
Rp157
(dp158
g42
I00
sg48
I00
sg49
I00
sg103
I1
sbsg49
I00
sg153
g0
(g92
g93
(lp159
tp160
Rp161
(dp162
g42
I00
sg48
I00
sg49
I00
sg103
I1
sbsg154
g0
(g92
g93
(lp163
Vkeep *
p164
aVdrop TotemFEDInfos_totemT2Digis_TotemT2_RECO
p165
aVdrop TotemT2DigiedmNewDetSetVector_totemT2Digis_TotemT2_RECO
p166
aVdrop TotemVFATStatusedmDetSetVector_totemT2Digis_TotemT2_RECO
p167
atp168
Rp169
(dp170
g42
I00
sg48
I00
sg49
I00
sg103
I1
sbsg139
V/cvmfs/cms.cern.ch/slc7_amd64_gcc12/cms/cmssw/CMSSW_14_1_0_pre2/src/FWCore/ParameterSet/python/Modules.py
p171
sg141
I195
sbsV_Process__looper
p172
NsV_Process__subProcesses
p173
(lp174
sV_Process__schedule
p175
g0
(cFWCore.ParameterSet.SequenceTypes
Schedule
p176
g93
(lp177
g0
(cFWCore.ParameterSet.SequenceTypes
Path
p178
g2
Ntp179
Rp180
(dp181
g42
I00
sV_seq
p182
g0
(cFWCore.ParameterSet.SequenceTypes
_SequenceCollection
p183
g2
Ntp184
Rp185
(dp186
V_collection
p187
(lp188
g15
asbsg49
I00
sV_tasks
p189
g0
(cFWCore.ParameterSet.OrderedSet
OrderedSet
p190
g2
Ntp191
Rp192
(dp193
Vend
p194
(lp195
Nag195
ag195
asVmap
p196
(dp197
sbsg142
VrpcTnPPath
p198
sbag0
(cFWCore.ParameterSet.SequenceTypes
EndPath
p199
g2
Ntp200
Rp201
(dp202
g42
I00
sg182
g0
(g183
g2
Ntp203
Rp204
(dp205
g187
(lp206
g0
(cFWCore.ParameterSet.Modules
OutputModule
p207
g2
Ntp208
Rp209
(dp210
g17
VNanoAODOutputModule
p211
sg19
(lp212
VfileName
p213
aVoutputCommands
p214
aVSelectEvents
p215
asg42
I00
sg43
Nsg213
g0
(g44
g2
Ntp216
Rp217
(dp218
g42
I00
sg48
I00
sg49
I00
sg50
Voutput.root
p219
sbsg49
I00
sg214
g0
(g92
g93
(lp220
Vdrop *
p221
aVkeep nanoaodFlatTable_*Table_*_*
p222
aVkeep edmTriggerResults_*_*_*
p223
aVkeep String_*_genModel_*
p224
aVkeep nanoaodMergeableCounterTable_*Table_*_*
p225
aVkeep nanoaodUniqueString_nanoMetadata_*_*
p226
aVkeep nanoaodFlatTable_*_*_*
p227
aVdrop edmTriggerResults_*_*_*
p228
atp229
Rp230
(dp231
g42
I00
sg48
I00
sg49
I00
sg103
I1
sbsg215
g0
(cFWCore.ParameterSet.Types
PSet
p232
g2
Ntp233
Rp234
(dp235
g42
I00
sg48
I00
sg49
I00
sg19
(lp236
g215
asg43
Nsg215
g0
(g92
g93
(lp237
g198
atp238
Rp239
(dp240
g42
I00
sg48
I01
sg49
I00
sg103
I1
sbsbsg139
V/u/user/sjws5411/Workspace/Efficiency/CMSSW_14_1_0_pre2/src/RPCDPGAnalysis/NanoAODTnP/test/muRPCTnPFlatTableProducer_cfg.py
p241
sg141
I49
sg142
Vout
p242
sbasbsg49
I00
sg189
g0
(g190
g2
Ntp243
Rp244
(dp245
g194
(lp246
Nag246
ag246
asg196
(dp247
sbsg142
g194
sbatp248
Rp249
(dp250
g42
I00
sg48
I01
sg49
I00
sg189
g0
(g190
g2
Ntp251
Rp252
(dp253
g194
(lp254
Nag254
ag254
asg196
(dp255
sbsbsV_Process__analyzers
p256
(dp257
sV_Process__outputmodules
p258
(dp259
g242
g209
ssV_Process__paths
p260
g0
(cFWCore.ParameterSet.DictTypes
SortedKeysDict
p261
c__builtin__
dict
p262
(dp263
g198
g180
stp264
Rp265
(dp266
Vlist
p267
(lp268
g198
asbsV_Process__endpaths
p269
g0
(g261
g262
(dp270
g194
g201
stp271
Rp272
(dp273
g267
(lp274
g194
asbsV_Process__finalpaths
p275
g0
(g261
g262
(dp276
tp277
Rp278
(dp279
g267
(lp280
sbsV_Process__sequences
p281
(dp282
sV_Process__tasks
p283
(dp284
sV_Process__conditionaltasks
p285
(dp286
sV_Process__services
p287
(dp288
VMessageLogger
p289
g0
(cFWCore.ParameterSet.Modules
Service
p290
g2
Ntp291
Rp292
(dp293
g17
g289
sg19
(lp294
VsuppressWarning
p295
aVsuppressFwkInfo
p296
aVsuppressInfo
p297
aVsuppressDebug
p298
aVdebugModules
p299
aVcout
p300
aVdefault
p301
aVcerr
p302
aVfiles
p303
asg42
I00
sg43
g0
(g133
g2
Ntp304
Rp305
(dp306
g42
I00
sg48
I00
sg49
I00
sg137
g0
(cFWCore.ParameterSet.Types
_PSetTemplate
p307
g2
Ntp308
Rp309
(dp310
V_pset
p311
g0
(g232
g2
Ntp312
Rp313
(dp314
g42
I00
sg48
I01
sg49
I00
sg19
(lp315
VreportEvery
p316
aVlimit
p317
aVtimespan
p318
asg43
Nsg316
g0
(cFWCore.ParameterSet.Types
int32
p319
g2
Ntp320
Rp321
(dp322
g42
I00
sg48
I00
sg49
I00
sg50
I1
sbsg317
g0
(g133
g2
Ntp323
Rp324
(dp325
g42
I00
sg48
I00
sg49
I00
sg137
g319
sg138
Nsbsg318
g0
(g133
g2
Ntp326
Rp327
(dp328
g42
I00
sg48
I00
sg49
I00
sg137
g319
sg138
Nsbsbsbsg138
Nsbsg295
g0
(g92
g93
(lp329
tp330
Rp331
(dp332
g42
I00
sg48
I00
sg49
I00
sg103
I1
sbsg49
I00
sg296
g0
(g92
g93
(lp333
tp334
Rp335
(dp336
g42
I00
sg48
I00
sg49
I00
sg103
I1
sbsg297
g0
(g92
g93
(lp337
tp338
Rp339
(dp340
g42
I00
sg48
I00
sg49
I00
sg103
I1
sbsg298
g0
(g92
g93
(lp341
tp342
Rp343
(dp344
g42
I00
sg48
I00
sg49
I00
sg103
I1
sbsg299
g0
(g92
g93
(lp345
tp346
Rp347
(dp348
g42
I00
sg48
I00
sg49
I00
sg103
I1
sbsg300
g0
(g232
g2
Ntp349
Rp350
(dp351
g42
I00
sg48
I00
sg49
I00
sg19
(lp352
VnoLineBreaks
p353
aVnoTimeStamps
p354
aVlineLength
p355
aVthreshold
p356
aVstatisticsThreshold
p357
aVenableStatistics
p358
aVresetStatistics
p359
aVenable
p360
asg43
g305
sg353
g0
(g133
g2
Ntp361
Rp362
(dp363
g42
I00
sg48
I00
sg49
I00
sg137
g120
sg138
Nsbsg354
g0
(g133
g2
Ntp364
Rp365
(dp366
g42
I00
sg48
I00
sg49
I00
sg137
g120
sg138
Nsbsg355
g0
(g133
g2
Ntp367
Rp368
(dp369
g42
I00
sg48
I00
sg49
I00
sg137
g319
sg138
Nsbsg356
g0
(g133
g2
Ntp370
Rp371
(dp372
g42
I00
sg48
I00
sg49
I00
sg137
g44
sg138
Nsbsg357
g0
(g133
g2
Ntp373
Rp374
(dp375
g42
I00
sg48
I00
sg49
I00
sg137
g44
sg138
Nsbsg358
g0
(g120
g2
Ntp376
Rp377
(dp378
g42
I00
sg48
I00
sg49
I00
sg50
I00
sbsg359
g0
(g120
g2
Ntp379
Rp380
(dp381
g42
I00
sg48
I00
sg49
I00
sg50
I00
sbsg360
g0
(g120
g2
Ntp382
Rp383
(dp384
g42
I00
sg48
I00
sg49
I00
sg50
I00
sbsbsg301
g0
(g232
g2
Ntp385
Rp386
(dp387
g42
I00
sg48
I00
sg49
I00
sg19
(lp388
g316
ag317
ag318
ag353
ag354
ag355
ag356
ag357
asg43
g305
sg316
g0
(g319
g2
Ntp389
Rp390
(dp391
g42
I00
sg48
I00
sg49
I00
sg50
I1
sbsg317
g0
(g133
g2
Ntp392
Rp393
(dp394
g42
I00
sg48
I00
sg49
I00
sg137
g319
sg138
Nsbsg318
g0
(g133
g2
Ntp395
Rp396
(dp397
g42
I00
sg48
I00
sg49
I00
sg137
g319
sg138
Nsbsg353
g0
(g120
g2
Ntp398
Rp399
(dp400
g42
I00
sg48
I00
sg49
I00
sg50
I00
sbsg354
g0
(g120
g2
Ntp401
Rp402
(dp403
g42
I00
sg48
I00
sg49
I00
sg50
I00
sbsg355
g0
(g319
g2
Ntp404
Rp405
(dp406
g42
I00
sg48
I00
sg49
I00
sg50
I80
sbsg356
g0
(g44
g2
Ntp407
Rp408
(dp409
g42
I00
sg48
I00
sg49
I00
sg50
VINFO
p410
sbsg357
g0
(g44
g2
Ntp411
Rp412
(dp413
g42
I00
sg48
I00
sg49
I00
sg50
g410
sbsbsg302
g0
(g232
g2
Ntp414
Rp415
(dp416
g42
I00
sg48
I00
sg49
I00
sg19
(lp417
g353
ag354
ag355
ag356
ag357
ag360
ag358
ag359
ag410
aVFwkReport
p418
ag301
aVRoot_NoDictionary
p419
aVFwkSummary
p420
asg43
g305
sg353
g0
(g133
g2
Ntp421
Rp422
(dp423
g42
I00
sg48
I00
sg49
I00
sg137
g120
sg138
Nsbsg354
g0
(g120
g2
Ntp424
Rp425
(dp426
g42
I00
sg48
I00
sg49
I00
sg50
I00
sbsg355
g0
(g133
g2
Ntp427
Rp428
(dp429
g42
I00
sg48
I00
sg49
I00
sg137
g319
sg138
Nsbsg356
g0
(g44
g2
Ntp430
Rp431
(dp432
g42
I00
sg48
I00
sg49
I00
sg50
g410
sbsg357
g0
(g44
g2
Ntp433
Rp434
(dp435
g42
I00
sg48
I00
sg49
I00
sg50
VWARNING
p436
sbsg360
g0
(g120
g2
Ntp437
Rp438
(dp439
g42
I00
sg48
I00
sg49
I00
sg50
I01
sbsg358
g0
(g120
g2
Ntp440
Rp441
(dp442
g42
I00
sg48
I00
sg49
I00
sg50
I00
sbsg359
g0
(g120
g2
Ntp443
Rp444
(dp445
g42
I00
sg48
I00
sg49
I00
sg50
I00
sbsg410
g0
(g232
g2
Ntp446
Rp447
(dp448
g42
I00
sg48
I00
sg49
I00
sg19
(lp449
g317
asg43
Nsg317
g0
(g319
g2
Ntp450
Rp451
(dp452
g42
I00
sg48
I00
sg49
I00
sg50
I0
sbsbsg418
g0
(g232
g2
Ntp453
Rp454
(dp455
g42
I00
sg48
I00
sg49
I00
sg19
(lp456
g316
ag317
asg43
Nsg316
g0
(g319
g2
Ntp457
Rp458
(dp459
g42
I00
sg48
I00
sg49
I00
sg50
I1
sbsg317
g0
(g319
g2
Ntp460
Rp461
(dp462
g42
I00
sg48
I00
sg49
I00
sg50
I10000000
sbsbsg301
g0
(g232
g2
Ntp463
Rp464
(dp465
g42
I00
sg48
I00
sg49
I00
sg19
(lp466
g317
asg43
Nsg317
g0
(g319
g2
Ntp467
Rp468
(dp469
g42
I00
sg48
I00
sg49
I00
sg50
I10000000
sbsbsg419
g0
(g232
g2
Ntp470
Rp471
(dp472
g42
I00
sg48
I00
sg49
I00
sg19
(lp473
g317
asg43
Nsg317
g0
(g319
g2
Ntp474
Rp475
(dp476
g42
I00
sg48
I00
sg49
I00
sg50
I0
sbsbsg420
g0
(g232
g2
Ntp477
Rp478
(dp479
g42
I00
sg48
I00
sg49
I00
sg19
(lp480
g316
ag317
asg43
Nsg316
g0
(g319
g2
Ntp481
Rp482
(dp483
g42
I00
sg48
I00
sg49
I00
sg50
I1
sbsg317
g0
(g319
g2
Ntp484
Rp485
(dp486
g42
I00
sg48
I00
sg49
I00
sg50
I10000000
sbsbsbsg303
g0
(g232
g2
Ntp487
Rp488
(dp489
g42
I00
sg48
I00
sg49
I00
sg19
(lp490
sg43
g0
(g133
g2
Ntp491
Rp492
(dp493
g42
I00
sg48
I00
sg49
I00
sg137
g0
(g307
g2
Ntp494
Rp495
(dp496
g311
g0
(g232
g2
Ntp497
Rp498
(dp499
g42
I00
sg48
I01
sg49
I00
sg19
(lp500
g353
ag354
ag355
ag356
ag357
ag358
ag359
aVfilename
p501
aVextension
p502
aVoutput
p503
asg43
g305
sg353
g0
(g133
g2
Ntp504
Rp505
(dp506
g42
I00
sg48
I00
sg49
I00
sg137
g120
sg138
Nsbsg354
g0
(g133
g2
Ntp507
Rp508
(dp509
g42
I00
sg48
I00
sg49
I00
sg137
g120
sg138
Nsbsg355
g0
(g133
g2
Ntp510
Rp511
(dp512
g42
I00
sg48
I00
sg49
I00
sg137
g319
sg138
Nsbsg356
g0
(g133
g2
Ntp513
Rp514
(dp515
g42
I00
sg48
I00
sg49
I00
sg137
g44
sg138
Nsbsg357
g0
(g133
g2
Ntp516
Rp517
(dp518
g42
I00
sg48
I00
sg49
I00
sg137
g44
sg138
Nsbsg358
g0
(g120
g2
Ntp519
Rp520
(dp521
g42
I00
sg48
I00
sg49
I00
sg50
I00
sbsg359
g0
(g120
g2
Ntp522
Rp523
(dp524
g42
I00
sg48
I00
sg49
I00
sg50
I00
sbsg501
g0
(g133
g2
Ntp525
Rp526
(dp527
g42
I00
sg48
I00
sg49
I00
sg137
g44
sg138
Nsbsg502
g0
(g133
g2
Ntp528
Rp529
(dp530
g42
I00
sg48
I00
sg49
I00
sg137
g44
sg138
Nsbsg503
g0
(g133
g2
Ntp531
Rp532
(dp533
g42
I00
sg48
I00
sg49
I00
sg137
g44
sg138
Nsbsbsbsg138
Nsbsbsg139
g171
sg141
I13
sV_inProcess
p534
I00
sbssV_Process__essources
p535
(dp536
Veegeom
p537
g0
(cFWCore.ParameterSet.Modules
ESSource
p538
g2
Ntp539
Rp540
(dp541
g17
VEmptyESSource
p542
sg19
(lp543
VrecordName
p544
aViovIsRunNotTime
p545
aVfirstValid
p546
asg42
I00
sg43
Nsg544
g0
(g44
g2
Ntp547
Rp548
(dp549
g42
I00
sg48
I01
sg49
I00
sg50
VEcalMappingRcd
p550
sbsg49
I00
sg545
g0
(g120
g2
Ntp551
Rp552
(dp553
g42
I00
sg48
I01
sg49
I00
sg50
I01
sbsg546
g0
(cFWCore.ParameterSet.Types
vuint32
p554
g93
(lp555
I1
atp556
Rp557
(dp558
g42
I00
sg48
I01
sg49
I00
sbsg139
V/cvmfs/cms.cern.ch/slc7_amd64_gcc12/cms/cmssw/CMSSW_14_1_0_pre2/src/Geometry/EcalMapping/python/EcalMappingRecord_cfi.py
p559
sg141
I3
sg142
g537
sbsVGlobalTag
p560
g0
(g538
g2
Ntp561
Rp562
(dp563
g17
VPoolDBESSource
p564
sg19
(lp565
VDBParameters
p566
aVconnect
p567
aVglobaltag
p568
aVsnapshotTime
p569
aVtoGet
p570
aVDumpStat
p571
aVReconnectEachRun
p572
aVRefreshAlways
p573
aVRefreshEachRun
p574
aVRefreshOpenIOVs
p575
aVpfnPostfix
p576
aVpfnPrefix
p577
asg42
I00
sg43
Nsg566
g0
(g232
g2
Ntp578
Rp579
(dp580
g42
I00
sg48
I01
sg49
I00
sg19
(lp581
VauthenticationPath
p582
aVauthenticationSystem
p583
aVsecurity
p584
aVmessageLevel
p585
aVconnectionTimeout
p586
asg43
Nsg582
g0
(g44
g2
Ntp587
Rp588
(dp589
g42
I00
sg48
I00
sg49
I00
sg50
g59
sbsg583
g0
(g319
g2
Ntp590
Rp591
(dp592
g42
I00
sg48
I00
sg49
I00
sg50
I0
sbsg584
g0
(g44
g2
Ntp593
Rp594
(dp595
g42
I00
sg48
I00
sg49
I00
sg50
g59
sbsg585
g0
(g319
g2
Ntp596
Rp597
(dp598
g42
I00
sg48
I00
sg49
I00
sg50
I0
sbsg586
g0
(g319
g2
Ntp599
Rp600
(dp601
g42
I00
sg48
I00
sg49
I00
sg50
I0
sbsbsg49
I01
sg567
g0
(g44
g2
Ntp602
Rp603
(dp604
g42
I00
sg48
I01
sg49
I00
sg50
Vfrontier://FrontierProd/CMS_CONDITIONS
p605
sbsg568
g0
(g44
g2
Ntp606
Rp607
(dp608
g42
I00
sg48
I01
sg49
I01
sg50
V140X_dataRun3_v3
p609
sbsg569
g0
(g44
g2
Ntp610
Rp611
(dp612
g42
I00
sg48
I01
sg49
I00
sg50
g59
sbsg570
g0
(cFWCore.ParameterSet.Types
VPSet
p613
g93
(lp614
tp615
Rp616
(dp617
g42
I00
sg48
I01
sg49
I00
sg103
I1
sbsg571
g0
(g120
g2
Ntp618
Rp619
(dp620
g42
I00
sg48
I00
sg49
I00
sg50
I00
sbsg572
g0
(g120
g2
Ntp621
Rp622
(dp623
g42
I00
sg48
I00
sg49
I00
sg50
I00
sbsg573
g0
(g120
g2
Ntp624
Rp625
(dp626
g42
I00
sg48
I00
sg49
I00
sg50
I00
sbsg574
g0
(g120
g2
Ntp627
Rp628
(dp629
g42
I00
sg48
I00
sg49
I00
sg50
I00
sbsg575
g0
(g120
g2
Ntp630
Rp631
(dp632
g42
I00
sg48
I00
sg49
I00
sg50
I00
sbsg576
g0
(g44
g2
Ntp633
Rp634
(dp635
g42
I00
sg48
I00
sg49
I00
sg50
g59
sbsg577
g0
(g44
g2
Ntp636
Rp637
(dp638
g42
I00
sg48
I00
sg49
I00
sg50
g59
sbsg139
V/cvmfs/cms.cern.ch/slc7_amd64_gcc12/cms/cmssw/CMSSW_14_1_0_pre2/src/CondCore/ESSources/python/CondDBESSource_cfi.py
p639
sg141
I8
sg142
g560
sbsVHcalTimeSlewEP
p640
g0
(g538
g2
Ntp641
Rp642
(dp643
g17
g640
sg19
(lp644
VappendToDataLabel
p645
aVtimeSlewParametersM2
p646
aVtimeSlewParametersM3
p647
asg42
I00
sg43
Nsg645
g0
(g44
g2
Ntp648
Rp649
(dp650
g42
I00
sg48
I01
sg49
I00
sg50
VHBHE
p651
sbsg49
I00
sg646
g0
(g613
g93
(lp652
g0
(g232
g2
Ntp653
Rp654
(dp655
g42
I00
sg48
I01
sg49
I00
sg19
(lp656
Vtzero
p657
aVslope
p658
aVtmax
p659
asg43
Nsg657
g0
(g78
g2
Ntp660
Rp661
(dp662
g42
I00
sg48
I01
sg49
I00
sg50
F23.960177
sbsg658
g0
(g78
g2
Ntp663
Rp664
(dp665
g42
I00
sg48
I01
sg49
I00
sg50
F-3.178648
sbsg659
g0
(g78
g2
Ntp666
Rp667
(dp668
g42
I00
sg48
I01
sg49
I00
sg50
F16.0
sbsbag0
(g232
g2
Ntp669
Rp670
(dp671
g42
I00
sg48
I01
sg49
I00
sg19
(lp672
g657
ag658
ag659
asg43
Nsg657
g0
(g78
g2
Ntp673
Rp674
(dp675
g42
I00
sg48
I01
sg49
I00
sg50
F11.977461
sbsg658
g0
(g78
g2
Ntp676
Rp677
(dp678
g42
I00
sg48
I01
sg49
I00
sg50
F-1.5610227
sbsg659
g0
(g78
g2
Ntp679
Rp680
(dp681
g42
I00
sg48
I01
sg49
I00
sg50
F10.0
sbsbag0
(g232
g2
Ntp682
Rp683
(dp684
g42
I00
sg48
I01
sg49
I00
sg19
(lp685
g657
ag658
ag659
asg43
Nsg657
g0
(g78
g2
Ntp686
Rp687
(dp688
g42
I00
sg48
I01
sg49
I00
sg50
F9.109694
sbsg658
g0
(g78
g2
Ntp689
Rp690
(dp691
g42
I00
sg48
I01
sg49
I00
sg50
F-1.075824
sbsg659
g0
(g78
g2
Ntp692
Rp693
(dp694
g42
I00
sg48
I01
sg49
I00
sg50
F6.25
sbsbatp695
Rp696
(dp697
g42
I00
sg48
I01
sg49
I00
sg103
I1
sbsg647
g0
(g613
g93
(lp698
g0
(g232
g2
Ntp699
Rp700
(dp701
g42
I00
sg48
I01
sg49
I00
sg19
(lp702
Vcap
p703
aVtspar0
p704
aVtspar1
p705
aVtspar2
p706
aVtspar0_siPM
p707
aVtspar1_siPM
p708
aVtspar2_siPM
p709
asg43
Nsg703
g0
(g78
g2
Ntp710
Rp711
(dp712
g42
I00
sg48
I01
sg49
I00
sg50
F6.0
sbsg704
g0
(g78
g2
Ntp713
Rp714
(dp715
g42
I00
sg48
I01
sg49
I00
sg50
F12.2999
sbsg705
g0
(g78
g2
Ntp716
Rp717
(dp718
g42
I00
sg48
I01
sg49
I00
sg50
F-2.19142
sbsg706
g0
(g78
g2
Ntp719
Rp720
(dp721
g42
I00
sg48
I01
sg49
I00
sg50
F0.0
sbsg707
g0
(g78
g2
Ntp722
Rp723
(dp724
g42
I00
sg48
I01
sg49
I00
sg50
F0.0
sbsg708
g0
(g78
g2
Ntp725
Rp726
(dp727
g42
I00
sg48
I01
sg49
I00
sg50
F0.0
sbsg709
g0
(g78
g2
Ntp728
Rp729
(dp730
g42
I00
sg48
I01
sg49
I00
sg50
F0.0
sbsbag0
(g232
g2
Ntp731
Rp732
(dp733
g42
I00
sg48
I01
sg49
I00
sg19
(lp734
g703
ag704
ag705
ag706
ag707
ag708
ag709
asg43
Nsg703
g0
(g78
g2
Ntp735
Rp736
(dp737
g42
I00
sg48
I01
sg49
I00
sg50
F6.0
sbsg704
g0
(g78
g2
Ntp738
Rp739
(dp740
g42
I00
sg48
I01
sg49
I00
sg50
F15.5
sbsg705
g0
(g78
g2
Ntp741
Rp742
(dp743
g42
I00
sg48
I01
sg49
I00
sg50
F-3.2
sbsg706
g0
(g78
g2
Ntp744
Rp745
(dp746
g42
I00
sg48
I01
sg49
I00
sg50
F32.0
sbsg707
g0
(g78
g2
Ntp747
Rp748
(dp749
g42
I00
sg48
I01
sg49
I00
sg50
F0.0
sbsg708
g0
(g78
g2
Ntp750
Rp751
(dp752
g42
I00
sg48
I01
sg49
I00
sg50
F0.0
sbsg709
g0
(g78
g2
Ntp753
Rp754
(dp755
g42
I00
sg48
I01
sg49
I00
sg50
F0.0
sbsbag0
(g232
g2
Ntp756
Rp757
(dp758
g42
I00
sg48
I01
sg49
I00
sg19
(lp759
g703
ag704
ag705
ag706
ag707
ag708
ag709
asg43
Nsg703
g0
(g78
g2
Ntp760
Rp761
(dp762
g42
I00
sg48
I01
sg49
I00
sg50
F6.0
sbsg704
g0
(g78
g2
Ntp763
Rp764
(dp765
g42
I00
sg48
I01
sg49
I00
sg50
F12.2999
sbsg705
g0
(g78
g2
Ntp766
Rp767
(dp768
g42
I00
sg48
I01
sg49
I00
sg50
F-2.19142
sbsg706
g0
(g78
g2
Ntp769
Rp770
(dp771
g42
I00
sg48
I01
sg49
I00
sg50
F0.0
sbsg707
g0
(g78
g2
Ntp772
Rp773
(dp774
g42
I00
sg48
I01
sg49
I00
sg50
F0.0
sbsg708
g0
(g78
g2
Ntp775
Rp776
(dp777
g42
I00
sg48
I01
sg49
I00
sg50
F0.0
sbsg709
g0
(g78
g2
Ntp778
Rp779
(dp780
g42
I00
sg48
I01
sg49
I00
sg50
F0.0
sbsbag0
(g232
g2
Ntp781
Rp782
(dp783
g42
I00
sg48
I01
sg49
I00
sg19
(lp784
g703
ag704
ag705
ag706
ag707
ag708
ag709
asg43
Nsg703
g0
(g78
g2
Ntp785
Rp786
(dp787
g42
I00
sg48
I01
sg49
I00
sg50
F6.0
sbsg704
g0
(g78
g2
Ntp788
Rp789
(dp790
g42
I00
sg48
I01
sg49
I00
sg50
F12.2999
sbsg705
g0
(g78
g2
Ntp791
Rp792
(dp793
g42
I00
sg48
I01
sg49
I00
sg50
F-2.19142
sbsg706
g0
(g78
g2
Ntp794
Rp795
(dp796
g42
I00
sg48
I01
sg49
I00
sg50
F0.0
sbsg707
g0
(g78
g2
Ntp797
Rp798
(dp799
g42
I00
sg48
I01
sg49
I00
sg50
F0.0
sbsg708
g0
(g78
g2
Ntp800
Rp801
(dp802
g42
I00
sg48
I01
sg49
I00
sg50
F0.0
sbsg709
g0
(g78
g2
Ntp803
Rp804
(dp805
g42
I00
sg48
I01
sg49
I00
sg50
F0.0
sbsbatp806
Rp807
(dp808
g42
I00
sg48
I01
sg49
I00
sg103
I1
sbsg139
V/cvmfs/cms.cern.ch/slc7_amd64_gcc12/cms/cmssw/CMSSW_14_1_0_pre2/src/CalibCalorimetry/HcalPlugins/python/HcalTimeSlew_cff.py
p809
sg141
I3
sg142
g640
sbsVes_hardcode
p810
g0
(g538
g2
Ntp811
Rp812
(dp813
g17
VHcalHardcodeCalibrations
p814
sg19
(lp815
g570
aViLumi
p816
aVHBRecalibration
p817
aVHBreCalibCutoff
p818
aVHBmeanenergies
p819
aVHERecalibration
p820
aVHEreCalibCutoff
p821
aVHEmeanenergies
p822
aVHFRecalibration
p823
aVHFRecalParameterBlock
p824
aVGainWidthsForTrigPrims
p825
aVuseHBUpgrade
p826
aVuseHEUpgrade
p827
aVuseHFUpgrade
p828
aVuseHOUpgrade
p829
aVtestHFQIE10
p830
aVtestHEPlan1
p831
aVkillHE
p832
aVuseLayer0Weight
p833
aVuseIeta18depth1
p834
aVhb
p835
aVhe
p836
aVhf
p837
aVho
p838
aVhbUpgrade
p839
aVheUpgrade
p840
aVhfUpgrade
p841
aVSiPMCharacteristics
p842
asg42
I00
sg43
Nsg570
g0
(g92
g93
(lp843
VGainWidths
p844
atp845
Rp846
(dp847
g42
I00
sg48
I00
sg49
I00
sg103
I1
sbsg49
I01
sg816
g0
(g78
g2
Ntp848
Rp849
(dp850
g42
I00
sg48
I01
sg49
I00
sg50
F-1.0
sbsg817
g0
(g120
g2
Ntp851
Rp852
(dp853
g42
I00
sg48
I01
sg49
I00
sg50
I00
sbsg818
g0
(g78
g2
Ntp854
Rp855
(dp856
g42
I00
sg48
I01
sg49
I00
sg50
F100.0
sbsg819
g0
(cFWCore.ParameterSet.Types
FileInPath
p857
g2
Ntp858
Rp859
(dp860
g42
I00
sg48
I01
sg49
I00
sg50
VCalibCalorimetry/HcalPlugins/data/meanenergiesHB.txt
p861
sbsg820
g0
(g120
g2
Ntp862
Rp863
(dp864
g42
I00
sg48
I01
sg49
I00
sg50
I00
sbsg821
g0
(g78
g2
Ntp865
Rp866
(dp867
g42
I00
sg48
I01
sg49
I00
sg50
F100.0
sbsg822
g0
(g857
g2
Ntp868
Rp869
(dp870
g42
I00
sg48
I01
sg49
I00
sg50
VCalibCalorimetry/HcalPlugins/data/meanenergiesHE.txt
p871
sbsg823
g0
(g120
g2
Ntp872
Rp873
(dp874
g42
I00
sg48
I01
sg49
I00
sg50
I00
sbsg824
g0
(g232
g2
Ntp875
Rp876
(dp877
g42
I00
sg48
I01
sg49
I00
sg19
(lp878
VHFdepthOneParameterA
p879
aVHFdepthOneParameterB
p880
aVHFdepthTwoParameterA
p881
aVHFdepthTwoParameterB
p882
asg43
Nsg879
g0
(cFWCore.ParameterSet.Types
vdouble
p883
g93
(lp884
F0.004123
aF0.00602
aF0.008201
aF0.010489
aF0.013379
aF0.016997
aF0.021464
aF0.027371
aF0.034195
aF0.044807
aF0.058939
aF0.125497
atp885
Rp886
(dp887
g42
I00
sg48
I01
sg49
I00
sbsg880
g0
(g883
g93
(lp888
F-4e-06
aF-2e-06
aF0.0
aF4e-06
aF1.5e-05
aF2.6e-05
aF6.3e-05
aF8.4e-05
aF0.00016
aF0.000107
aF0.000425
aF0.000209
atp889
Rp890
(dp891
g42
I00
sg48
I01
sg49
I00
sbsg881
g0
(g883
g93
(lp892
F0.002861
aF0.004168
aF0.0064
aF0.008388
aF0.011601
aF0.014425
aF0.018633
aF0.023232
aF0.028274
aF0.035447
aF0.051579
aF0.086593
atp893
Rp894
(dp895
g42
I00
sg48
I01
sg49
I00
sbsg882
g0
(g883
g93
(lp896
F-2e-06
aF-0.0
aF-7e-06
aF-6e-06
aF-2e-06
aF1e-06
aF1.9e-05
aF3.1e-05
aF6.7e-05
aF1.2e-05
aF0.000157
aF-3e-06
atp897
Rp898
(dp899
g42
I00
sg48
I01
sg49
I00
sbsg142
g824
sbsg825
g0
(g120
g2
Ntp900
Rp901
(dp902
g42
I00
sg48
I01
sg49
I00
sg50
I00
sbsg826
g0
(g120
g2
Ntp903
Rp904
(dp905
g42
I00
sg48
I01
sg49
I00
sg50
I01
sbsg827
g0
(g120
g2
Ntp906
Rp907
(dp908
g42
I00
sg48
I01
sg49
I00
sg50
I01
sbsg828
g0
(g120
g2
Ntp909
Rp910
(dp911
g42
I00
sg48
I01
sg49
I00
sg50
I01
sbsg829
g0
(g120
g2
Ntp912
Rp913
(dp914
g42
I00
sg48
I01
sg49
I00
sg50
I01
sbsg830
g0
(g120
g2
Ntp915
Rp916
(dp917
g42
I00
sg48
I01
sg49
I00
sg50
I00
sbsg831
g0
(g120
g2
Ntp918
Rp919
(dp920
g42
I00
sg48
I01
sg49
I00
sg50
I00
sbsg832
g0
(g120
g2
Ntp921
Rp922
(dp923
g42
I00
sg48
I01
sg49
I00
sg50
I00
sbsg833
g0
(g120
g2
Ntp924
Rp925
(dp926
g42
I00
sg48
I01
sg49
I00
sg50
I01
sbsg834
g0
(g120
g2
Ntp927
Rp928
(dp929
g42
I00
sg48
I01
sg49
I00
sg50
I00
sbsg835
g0
(g232
g2
Ntp930
Rp931
(dp932
g42
I00
sg48
I01
sg49
I00
sg19
(lp933
Vpedestal
p934
aVpedestalWidth
p935
aVgain
p936
aVgainWidth
p937
aVzsThreshold
p938
aVqieType
p939
aVqieOffset
p940
aVqieSlope
p941
aVmcShape
p942
aVrecoShape
p943
aVphotoelectronsToAnalog
p944
aVdarkCurrent
p945
aVnoiseCorrelation
p946
aVnoiseThreshold
p947
aVseedThreshold
p948
aVdoRadiationDamage
p949
asg43
Nsg934
g0
(g78
g2
Ntp950
Rp951
(dp952
g42
I00
sg48
I01
sg49
I00
sg50
F3.285
sbsg935
g0
(g78
g2
Ntp953
Rp954
(dp955
g42
I00
sg48
I01
sg49
I00
sg50
F0.809
sbsg936
g0
(g883
g93
(lp956
F0.19
atp957
Rp958
(dp959
g42
I00
sg48
I01
sg49
I00
sbsg937
g0
(g883
g93
(lp960
F0.0
atp961
Rp962
(dp963
g42
I00
sg48
I01
sg49
I00
sbsg938
g0
(g319
g2
Ntp964
Rp965
(dp966
g42
I00
sg48
I01
sg49
I00
sg50
I8
sbsg939
g0
(g319
g2
Ntp967
Rp968
(dp969
g42
I00
sg48
I01
sg49
I00
sg50
I0
sbsg940
g0
(g883
g93
(lp970
F-0.49
aF1.8
aF7.2
aF37.9
atp971
Rp972
(dp973
g42
I00
sg48
I01
sg49
I00
sbsg941
g0
(g883
g93
(lp974
F0.912
aF0.917
aF0.922
aF0.923
atp975
Rp976
(dp977
g42
I00
sg48
I01
sg49
I00
sbsg942
g0
(g319
g2
Ntp978
Rp979
(dp980
g42
I00
sg48
I01
sg49
I00
sg50
I125
sbsg943
g0
(g319
g2
Ntp981
Rp982
(dp983
g42
I00
sg48
I01
sg49
I00
sg50
I105
sbsg944
g0
(g78
g2
Ntp984
Rp985
(dp986
g42
I00
sg48
I01
sg49
I00
sg50
F0.3305
sbsg945
g0
(g883
g93
(lp987
F0.0
atp988
Rp989
(dp990
g42
I00
sg48
I01
sg49
I00
sbsg946
g0
(g883
g93
(lp991
F0.0
atp992
Rp993
(dp994
g42
I00
sg48
I01
sg49
I00
sbsg947
g0
(g78
g2
Ntp995
Rp996
(dp997
g42
I00
sg48
I01
sg49
I00
sg50
F0.0
sbsg948
g0
(g78
g2
Ntp998
Rp999
(dp1000
g42
I00
sg48
I01
sg49
I00
sg50
F0.1
sbsg949
g0
(g120
g2
Ntp1001
Rp1002
(dp1003
g42
I00
sg48
I01
sg49
I00
sg50
I00
sbsbsg836
g0
(g232
g2
Ntp1004
Rp1005
(dp1006
g42
I00
sg48
I01
sg49
I00
sg19
(lp1007
g934
ag935
ag936
ag937
ag938
ag939
ag940
ag941
ag942
ag943
ag944
ag945
ag946
ag947
ag948
ag949
asg43
Nsg934
g0
(g78
g2
Ntp1008
Rp1009
(dp1010
g42
I00
sg48
I01
sg49
I00
sg50
F3.163
sbsg935
g0
(g78
g2
Ntp1011
Rp1012
(dp1013
g42
I00
sg48
I01
sg49
I00
sg50
F0.9698
sbsg936
g0
(g883
g93
(lp1014
F0.23
atp1015
Rp1016
(dp1017
g42
I00
sg48
I01
sg49
I00
sbsg937
g0
(g883
g93
(lp1018
I0
atp1019
Rp1020
(dp1021
g42
I00
sg48
I01
sg49
I00
sbsg938
g0
(g319
g2
Ntp1022
Rp1023
(dp1024
g42
I00
sg48
I01
sg49
I00
sg50
I9
sbsg939
g0
(g319
g2
Ntp1025
Rp1026
(dp1027
g42
I00
sg48
I01
sg49
I00
sg50
I0
sbsg940
g0
(g883
g93
(lp1028
F-0.38
aF2.0
aF7.6
aF39.6
atp1029
Rp1030
(dp1031
g42
I00
sg48
I01
sg49
I00
sbsg941
g0
(g883
g93
(lp1032
F0.912
aF0.916
aF0.92
aF0.922
atp1033
Rp1034
(dp1035
g42
I00
sg48
I01
sg49
I00
sbsg942
g0
(g319
g2
Ntp1036
Rp1037
(dp1038
g42
I00
sg48
I01
sg49
I00
sg50
I125
sbsg943
g0
(g319
g2
Ntp1039
Rp1040
(dp1041
g42
I00
sg48
I01
sg49
I00
sg50
I105
sbsg944
g0
(g78
g2
Ntp1042
Rp1043
(dp1044
g42
I00
sg48
I01
sg49
I00
sg50
F0.3305
sbsg945
g0
(g883
g93
(lp1045
F0.0
atp1046
Rp1047
(dp1048
g42
I00
sg48
I01
sg49
I00
sbsg946
g0
(g883
g93
(lp1049
F0.0
atp1050
Rp1051
(dp1052
g42
I00
sg48
I01
sg49
I00
sbsg947
g0
(g78
g2
Ntp1053
Rp1054
(dp1055
g42
I00
sg48
I01
sg49
I00
sg50
F0.0
sbsg948
g0
(g78
g2
Ntp1056
Rp1057
(dp1058
g42
I00
sg48
I01
sg49
I00
sg50
F0.1
sbsg949
g0
(g120
g2
Ntp1059
Rp1060
(dp1061
g42
I00
sg48
I01
sg49
I00
sg50
I00
sbsbsg837
g0
(g232
g2
Ntp1062
Rp1063
(dp1064
g42
I00
sg48
I01
sg49
I00
sg19
(lp1065
g934
ag935
ag936
ag937
ag938
ag939
ag940
ag941
ag942
ag943
ag944
ag945
ag946
ag947
ag948
ag949
asg43
Nsg934
g0
(g78
g2
Ntp1066
Rp1067
(dp1068
g42
I00
sg48
I01
sg49
I00
sg50
F9.354
sbsg935
g0
(g78
g2
Ntp1069
Rp1070
(dp1071
g42
I00
sg48
I01
sg49
I00
sg50
F2.516
sbsg936
g0
(g883
g93
(lp1072
F0.14
aF0.135
atp1073
Rp1074
(dp1075
g42
I00
sg48
I01
sg49
I00
sbsg937
g0
(g883
g93
(lp1076
F0.0
aF0.0
atp1077
Rp1078
(dp1079
g42
I00
sg48
I01
sg49
I00
sbsg938
g0
(g319
g2
Ntp1080
Rp1081
(dp1082
g42
I00
sg48
I01
sg49
I00
sg50
I-9999
sbsg939
g0
(g319
g2
Ntp1083
Rp1084
(dp1085
g42
I00
sg48
I01
sg49
I00
sg50
I0
sbsg940
g0
(g883
g93
(lp1086
F-0.87
aF1.4
aF7.8
aF-29.6
atp1087
Rp1088
(dp1089
g42
I00
sg48
I01
sg49
I00
sbsg941
g0
(g883
g93
(lp1090
F0.359
aF0.358
aF0.36
aF0.367
atp1091
Rp1092
(dp1093
g42
I00
sg48
I01
sg49
I00
sbsg942
g0
(g319
g2
Ntp1094
Rp1095
(dp1096
g42
I00
sg48
I01
sg49
I00
sg50
I301
sbsg943
g0
(g319
g2
Ntp1097
Rp1098
(dp1099
g42
I00
sg48
I01
sg49
I00
sg50
I301
sbsg944
g0
(g78
g2
Ntp1100
Rp1101
(dp1102
g42
I00
sg48
I01
sg49
I00
sg50
F0.0
sbsg945
g0
(g883
g93
(lp1103
F0.0
atp1104
Rp1105
(dp1106
g42
I00
sg48
I01
sg49
I00
sbsg946
g0
(g883
g93
(lp1107
F0.0
atp1108
Rp1109
(dp1110
g42
I00
sg48
I01
sg49
I00
sbsg947
g0
(g78
g2
Ntp1111
Rp1112
(dp1113
g42
I00
sg48
I01
sg49
I00
sg50
F0.0
sbsg948
g0
(g78
g2
Ntp1114
Rp1115
(dp1116
g42
I00
sg48
I01
sg49
I00
sg50
F0.1
sbsg949
g0
(g120
g2
Ntp1117
Rp1118
(dp1119
g42
I00
sg48
I01
sg49
I00
sg50
I00
sbsbsg838
g0
(g232
g2
Ntp1120
Rp1121
(dp1122
g42
I00
sg48
I01
sg49
I00
sg19
(lp1123
g934
ag935
ag936
ag937
ag938
ag939
ag940
ag941
ag942
ag943
ag944
ag945
ag946
ag947
ag948
ag949
asg43
Nsg934
g0
(g78
g2
Ntp1124
Rp1125
(dp1126
g42
I00
sg48
I01
sg49
I00
sg50
F12.06
sbsg935
g0
(g78
g2
Ntp1127
Rp1128
(dp1129
g42
I00
sg48
I01
sg49
I00
sg50
F0.6285
sbsg936
g0
(g883
g93
(lp1130
F0.006
aF0.0087
atp1131
Rp1132
(dp1133
g42
I00
sg48
I01
sg49
I00
sbsg937
g0
(g883
g93
(lp1134
F0.0
aF0.0
atp1135
Rp1136
(dp1137
g42
I00
sg48
I01
sg49
I00
sbsg938
g0
(g319
g2
Ntp1138
Rp1139
(dp1140
g42
I00
sg48
I01
sg49
I00
sg50
I24
sbsg939
g0
(g319
g2
Ntp1141
Rp1142
(dp1143
g42
I00
sg48
I01
sg49
I00
sg50
I0
sbsg940
g0
(g883
g93
(lp1144
F-0.44
aF1.4
aF7.1
aF38.5
atp1145
Rp1146
(dp1147
g42
I00
sg48
I01
sg49
I00
sbsg941
g0
(g883
g93
(lp1148
F0.907
aF0.915
aF0.92
aF0.921
atp1149
Rp1150
(dp1151
g42
I00
sg48
I01
sg49
I00
sbsg942
g0
(g319
g2
Ntp1152
Rp1153
(dp1154
g42
I00
sg48
I01
sg49
I00
sg50
I201
sbsg943
g0
(g319
g2
Ntp1155
Rp1156
(dp1157
g42
I00
sg48
I01
sg49
I00
sg50
I201
sbsg944
g0
(g78
g2
Ntp1158
Rp1159
(dp1160
g42
I00
sg48
I01
sg49
I00
sg50
F4.0
sbsg945
g0
(g883
g93
(lp1161
F0.0
atp1162
Rp1163
(dp1164
g42
I00
sg48
I01
sg49
I00
sbsg946
g0
(g883
g93
(lp1165
F0.0
atp1166
Rp1167
(dp1168
g42
I00
sg48
I01
sg49
I00
sbsg947
g0
(g78
g2
Ntp1169
Rp1170
(dp1171
g42
I00
sg48
I01
sg49
I00
sg50
F0.0
sbsg948
g0
(g78
g2
Ntp1172
Rp1173
(dp1174
g42
I00
sg48
I01
sg49
I00
sg50
F0.1
sbsg949
g0
(g120
g2
Ntp1175
Rp1176
(dp1177
g42
I00
sg48
I01
sg49
I00
sg50
I00
sbsbsg839
g0
(g232
g2
Ntp1178
Rp1179
(dp1180
g42
I00
sg48
I01
sg49
I00
sg19
(lp1181
g934
ag935
ag936
ag937
ag938
ag939
ag940
ag941
ag942
ag943
ag944
ag945
ag946
ag947
ag948
ag949
aVradiationDamage
p1182
asg43
Nsg934
g0
(g78
g2
Ntp1183
Rp1184
(dp1185
g42
I00
sg48
I01
sg49
I00
sg50
F17.3
sbsg935
g0
(g78
g2
Ntp1186
Rp1187
(dp1188
g42
I00
sg48
I01
sg49
I00
sg50
F1.5
sbsg936
g0
(g883
g93
(lp1189
F0.0006252
atp1190
Rp1191
(dp1192
g42
I00
sg48
I01
sg49
I00
sbsg937
g0
(g883
g93
(lp1193
I0
atp1194
Rp1195
(dp1196
g42
I00
sg48
I01
sg49
I00
sbsg938
g0
(g319
g2
Ntp1197
Rp1198
(dp1199
g42
I00
sg48
I01
sg49
I00
sg50
I16
sbsg939
g0
(g319
g2
Ntp1200
Rp1201
(dp1202
g42
I00
sg48
I01
sg49
I00
sg50
I2
sbsg940
g0
(g883
g93
(lp1203
F0.0
aF0.0
aF0.0
aF0.0
atp1204
Rp1205
(dp1206
g42
I00
sg48
I01
sg49
I00
sbsg941
g0
(g883
g93
(lp1207
F0.05376
aF0.05376
aF0.05376
aF0.05376
atp1208
Rp1209
(dp1210
g42
I00
sg48
I01
sg49
I00
sbsg942
g0
(g319
g2
Ntp1211
Rp1212
(dp1213
g42
I00
sg48
I01
sg49
I00
sg50
I206
sbsg943
g0
(g319
g2
Ntp1214
Rp1215
(dp1216
g42
I00
sg48
I01
sg49
I00
sg50
I208
sbsg944
g0
(g78
g2
Ntp1217
Rp1218
(dp1219
g42
I00
sg48
I01
sg49
I00
sg50
F40.0
sbsg945
g0
(g883
g93
(lp1220
F0.01
aF0.015
atp1221
Rp1222
(dp1223
g42
I00
sg48
I01
sg49
I00
sbsg946
g0
(g883
g93
(lp1224
F0.26
aF0.254
atp1225
Rp1226
(dp1227
g42
I00
sg48
I01
sg49
I00
sbsg947
g0
(g78
g2
Ntp1228
Rp1229
(dp1230
g42
I00
sg48
I01
sg49
I00
sg50
F0.0
sbsg948
g0
(g78
g2
Ntp1231
Rp1232
(dp1233
g42
I00
sg48
I01
sg49
I00
sg50
F0.1
sbsg949
g0
(g120
g2
Ntp1234
Rp1235
(dp1236
g42
I00
sg48
I01
sg49
I00
sg50
I01
sbsg1182
g0
(g232
g2
Ntp1237
Rp1238
(dp1239
g42
I00
sg48
I01
sg49
I00
sg19
(lp1240
VtemperatureBase
p1241
aVtemperatureNew
p1242
aVintlumiOffset
p1243
aVdepVsTemp
p1244
aVintlumiToNeutrons
p1245
aVdepVsNeutrons
p1246
asg43
Nsg1241
g0
(g78
g2
Ntp1247
Rp1248
(dp1249
g42
I00
sg48
I01
sg49
I00
sg50
I20
sbsg1242
g0
(g78
g2
Ntp1250
Rp1251
(dp1252
g42
I00
sg48
I01
sg49
I00
sg50
I-5
sbsg1243
g0
(g78
g2
Ntp1253
Rp1254
(dp1255
g42
I00
sg48
I01
sg49
I00
sg50
I150
sbsg1244
g0
(g78
g2
Ntp1256
Rp1257
(dp1258
g42
I00
sg48
I01
sg49
I00
sg50
F0.0631
sbsg1245
g0
(g78
g2
Ntp1259
Rp1260
(dp1261
g42
I00
sg48
I01
sg49
I00
sg50
F367000000.0
sbsg1246
g0
(g883
g93
(lp1262
F5.543e-10
aF8.012e-10
atp1263
Rp1264
(dp1265
g42
I00
sg48
I01
sg49
I00
sbsbsbsg840
g0
(g232
g2
Ntp1266
Rp1267
(dp1268
g42
I00
sg48
I01
sg49
I00
sg19
(lp1269
g934
ag935
ag936
ag937
ag938
ag939
ag940
ag941
ag942
ag943
ag944
ag945
ag946
ag947
ag948
ag949
ag1182
asg43
Nsg934
g0
(g78
g2
Ntp1270
Rp1271
(dp1272
g42
I00
sg48
I01
sg49
I00
sg50
F17.3
sbsg935
g0
(g78
g2
Ntp1273
Rp1274
(dp1275
g42
I00
sg48
I01
sg49
I00
sg50
F1.5
sbsg936
g0
(g883
g93
(lp1276
F0.0006252
atp1277
Rp1278
(dp1279
g42
I00
sg48
I01
sg49
I00
sbsg937
g0
(g883
g93
(lp1280
I0
atp1281
Rp1282
(dp1283
g42
I00
sg48
I01
sg49
I00
sbsg938
g0
(g319
g2
Ntp1284
Rp1285
(dp1286
g42
I00
sg48
I01
sg49
I00
sg50
I16
sbsg939
g0
(g319
g2
Ntp1287
Rp1288
(dp1289
g42
I00
sg48
I01
sg49
I00
sg50
I2
sbsg940
g0
(g883
g93
(lp1290
F0.0
aF0.0
aF0.0
aF0.0
atp1291
Rp1292
(dp1293
g42
I00
sg48
I01
sg49
I00
sbsg941
g0
(g883
g93
(lp1294
F0.05376
aF0.05376
aF0.05376
aF0.05376
atp1295
Rp1296
(dp1297
g42
I00
sg48
I01
sg49
I00
sbsg942
g0
(g319
g2
Ntp1298
Rp1299
(dp1300
g42
I00
sg48
I01
sg49
I00
sg50
I206
sbsg943
g0
(g319
g2
Ntp1301
Rp1302
(dp1303
g42
I00
sg48
I01
sg49
I00
sg50
I208
sbsg944
g0
(g78
g2
Ntp1304
Rp1305
(dp1306
g42
I00
sg48
I01
sg49
I00
sg50
F40.0
sbsg945
g0
(g883
g93
(lp1307
F0.01
aF0.015
atp1308
Rp1309
(dp1310
g42
I00
sg48
I01
sg49
I00
sbsg946
g0
(g883
g93
(lp1311
F0.26
aF0.254
atp1312
Rp1313
(dp1314
g42
I00
sg48
I01
sg49
I00
sbsg947
g0
(g78
g2
Ntp1315
Rp1316
(dp1317
g42
I00
sg48
I01
sg49
I00
sg50
F0.0
sbsg948
g0
(g78
g2
Ntp1318
Rp1319
(dp1320
g42
I00
sg48
I01
sg49
I00
sg50
F0.1
sbsg949
g0
(g120
g2
Ntp1321
Rp1322
(dp1323
g42
I00
sg48
I01
sg49
I00
sg50
I01
sbsg1182
g0
(g232
g2
Ntp1324
Rp1325
(dp1326
g42
I00
sg48
I01
sg49
I00
sg19
(lp1327
g1241
ag1242
ag1243
ag1244
ag1245
ag1246
asg43
Nsg1241
g0
(g78
g2
Ntp1328
Rp1329
(dp1330
g42
I00
sg48
I01
sg49
I00
sg50
I20
sbsg1242
g0
(g78
g2
Ntp1331
Rp1332
(dp1333
g42
I00
sg48
I01
sg49
I00
sg50
I5
sbsg1243
g0
(g78
g2
Ntp1334
Rp1335
(dp1336
g42
I00
sg48
I01
sg49
I00
sg50
I75
sbsg1244
g0
(g78
g2
Ntp1337
Rp1338
(dp1339
g42
I00
sg48
I01
sg49
I00
sg50
F0.0631
sbsg1245
g0
(g78
g2
Ntp1340
Rp1341
(dp1342
g42
I00
sg48
I01
sg49
I00
sg50
F29200000.0
sbsg1246
g0
(g883
g93
(lp1343
F5.543e-10
aF8.012e-10
atp1344
Rp1345
(dp1346
g42
I00
sg48
I01
sg49
I00
sbsbsbsg841
g0
(g232
g2
Ntp1347
Rp1348
(dp1349
g42
I00
sg48
I01
sg49
I00
sg19
(lp1350
g934
ag935
ag936
ag937
ag938
ag939
ag940
ag941
ag942
ag943
ag944
ag945
ag946
ag947
ag948
ag949
asg43
Nsg934
g0
(g78
g2
Ntp1351
Rp1352
(dp1353
g42
I00
sg48
I01
sg49
I00
sg50
F13.33
sbsg935
g0
(g78
g2
Ntp1354
Rp1355
(dp1356
g42
I00
sg48
I01
sg49
I00
sg50
F3.33
sbsg936
g0
(g883
g93
(lp1357
F0.14
aF0.135
atp1358
Rp1359
(dp1360
g42
I00
sg48
I01
sg49
I00
sbsg937
g0
(g883
g93
(lp1361
F0.0
aF0.0
atp1362
Rp1363
(dp1364
g42
I00
sg48
I01
sg49
I00
sbsg938
g0
(g319
g2
Ntp1365
Rp1366
(dp1367
g42
I00
sg48
I01
sg49
I00
sg50
I-9999
sbsg939
g0
(g319
g2
Ntp1368
Rp1369
(dp1370
g42
I00
sg48
I01
sg49
I00
sg50
I1
sbsg940
g0
(g883
g93
(lp1371
F0.0697
aF-0.7405
aF12.38
aF-671.9
atp1372
Rp1373
(dp1374
g42
I00
sg48
I01
sg49
I00
sbsg941
g0
(g883
g93
(lp1375
F0.297
aF0.298
aF0.298
aF0.313
atp1376
Rp1377
(dp1378
g42
I00
sg48
I01
sg49
I00
sbsg942
g0
(g319
g2
Ntp1379
Rp1380
(dp1381
g42
I00
sg48
I01
sg49
I00
sg50
I301
sbsg943
g0
(g319
g2
Ntp1382
Rp1383
(dp1384
g42
I00
sg48
I01
sg49
I00
sg50
I301
sbsg944
g0
(g78
g2
Ntp1385
Rp1386
(dp1387
g42
I00
sg48
I01
sg49
I00
sg50
F0.0
sbsg945
g0
(g883
g93
(lp1388
F0.0
atp1389
Rp1390
(dp1391
g42
I00
sg48
I01
sg49
I00
sbsg946
g0
(g883
g93
(lp1392
F0.0
atp1393
Rp1394
(dp1395
g42
I00
sg48
I01
sg49
I00
sbsg947
g0
(g78
g2
Ntp1396
Rp1397
(dp1398
g42
I00
sg48
I01
sg49
I00
sg50
F0.0
sbsg948
g0
(g78
g2
Ntp1399
Rp1400
(dp1401
g42
I00
sg48
I01
sg49
I00
sg50
F0.1
sbsg949
g0
(g120
g2
Ntp1402
Rp1403
(dp1404
g42
I00
sg48
I01
sg49
I00
sg50
I00
sbsbsg842
g0
(g613
g93
(lp1405
g0
(g232
g2
Ntp1406
Rp1407
(dp1408
g42
I00
sg48
I01
sg49
I00
sg19
(lp1409
Vpixels
p1410
aVcrosstalk
p1411
aVnonlin1
p1412
aVnonlin2
p1413
aVnonlin3
p1414
asg43
Nsg1410
g0
(g319
g2
Ntp1415
Rp1416
(dp1417
g42
I00
sg48
I01
sg49
I00
sg50
I36000
sbsg1411
g0
(g78
g2
Ntp1418
Rp1419
(dp1420
g42
I00
sg48
I01
sg49
I00
sg50
F0.0
sbsg1412
g0
(g78
g2
Ntp1421
Rp1422
(dp1423
g42
I00
sg48
I01
sg49
I00
sg50
F1.0
sbsg1413
g0
(g78
g2
Ntp1424
Rp1425
(dp1426
g42
I00
sg48
I01
sg49
I00
sg50
F0.0
sbsg1414
g0
(g78
g2
Ntp1427
Rp1428
(dp1429
g42
I00
sg48
I01
sg49
I00
sg50
F0.0
sbsbag0
(g232
g2
Ntp1430
Rp1431
(dp1432
g42
I00
sg48
I01
sg49
I00
sg19
(lp1433
g1410
ag1411
ag1412
ag1413
ag1414
asg43
Nsg1410
g0
(g319
g2
Ntp1434
Rp1435
(dp1436
g42
I00
sg48
I01
sg49
I00
sg50
I2500
sbsg1411
g0
(g78
g2
Ntp1437
Rp1438
(dp1439
g42
I00
sg48
I01
sg49
I00
sg50
F0.0
sbsg1412
g0
(g78
g2
Ntp1440
Rp1441
(dp1442
g42
I00
sg48
I01
sg49
I00
sg50
F1.0
sbsg1413
g0
(g78
g2
Ntp1443
Rp1444
(dp1445
g42
I00
sg48
I01
sg49
I00
sg50
F0.0
sbsg1414
g0
(g78
g2
Ntp1446
Rp1447
(dp1448
g42
I00
sg48
I01
sg49
I00
sg50
F0.0
sbsbag0
(g232
g2
Ntp1449
Rp1450
(dp1451
g42
I00
sg48
I01
sg49
I00
sg19
(lp1452
g1410
ag1411
ag1412
ag1413
ag1414
asg43
Nsg1410
g0
(g319
g2
Ntp1453
Rp1454
(dp1455
g42
I00
sg48
I01
sg49
I00
sg50
I27370
sbsg1411
g0
(g78
g2
Ntp1456
Rp1457
(dp1458
g42
I00
sg48
I01
sg49
I00
sg50
F0.17
sbsg1412
g0
(g78
g2
Ntp1459
Rp1460
(dp1461
g42
I00
sg48
I01
sg49
I00
sg50
F1.00985
sbsg1413
g0
(g78
g2
Ntp1462
Rp1463
(dp1464
g42
I00
sg48
I01
sg49
I00
sg50
F7.84089e-06
sbsg1414
g0
(g78
g2
Ntp1465
Rp1466
(dp1467
g42
I00
sg48
I01
sg49
I00
sg50
F2.86282e-10
sbsbag0
(g232
g2
Ntp1468
Rp1469
(dp1470
g42
I00
sg48
I01
sg49
I00
sg19
(lp1471
g1410
ag1411
ag1412
ag1413
ag1414
asg43
Nsg1410
g0
(g319
g2
Ntp1472
Rp1473
(dp1474
g42
I00
sg48
I01
sg49
I00
sg50
I38018
sbsg1411
g0
(g78
g2
Ntp1475
Rp1476
(dp1477
g42
I00
sg48
I01
sg49
I00
sg50
F0.196
sbsg1412
g0
(g78
g2
Ntp1478
Rp1479
(dp1480
g42
I00
sg48
I01
sg49
I00
sg50
F1.00546
sbsg1413
g0
(g78
g2
Ntp1481
Rp1482
(dp1483
g42
I00
sg48
I01
sg49
I00
sg50
F6.40239e-06
sbsg1414
g0
(g78
g2
Ntp1484
Rp1485
(dp1486
g42
I00
sg48
I01
sg49
I00
sg50
F1.27011e-10
sbsbag0
(g232
g2
Ntp1487
Rp1488
(dp1489
g42
I00
sg48
I01
sg49
I00
sg19
(lp1490
g1410
ag1411
ag1412
ag1413
ag1414
asg43
Nsg1410
g0
(g319
g2
Ntp1491
Rp1492
(dp1493
g42
I00
sg48
I01
sg49
I00
sg50
I27370
sbsg1411
g0
(g78
g2
Ntp1494
Rp1495
(dp1496
g42
I00
sg48
I01
sg49
I00
sg50
F0.17
sbsg1412
g0
(g78
g2
Ntp1497
Rp1498
(dp1499
g42
I00
sg48
I01
sg49
I00
sg50
F1.00985
sbsg1413
g0
(g78
g2
Ntp1500
Rp1501
(dp1502
g42
I00
sg48
I01
sg49
I00
sg50
F7.84089e-06
sbsg1414
g0
(g78
g2
Ntp1503
Rp1504
(dp1505
g42
I00
sg48
I01
sg49
I00
sg50
F2.86282e-10
sbsbag0
(g232
g2
Ntp1506
Rp1507
(dp1508
g42
I00
sg48
I01
sg49
I00
sg19
(lp1509
g1410
ag1411
ag1412
ag1413
ag1414
asg43
Nsg1410
g0
(g319
g2
Ntp1510
Rp1511
(dp1512
g42
I00
sg48
I01
sg49
I00
sg50
I38018
sbsg1411
g0
(g78
g2
Ntp1513
Rp1514
(dp1515
g42
I00
sg48
I01
sg49
I00
sg50
F0.196
sbsg1412
g0
(g78
g2
Ntp1516
Rp1517
(dp1518
g42
I00
sg48
I01
sg49
I00
sg50
F1.00546
sbsg1413
g0
(g78
g2
Ntp1519
Rp1520
(dp1521
g42
I00
sg48
I01
sg49
I00
sg50
F6.40239e-06
sbsg1414
g0
(g78
g2
Ntp1522
Rp1523
(dp1524
g42
I00
sg48
I01
sg49
I00
sg50
F1.27011e-10
sbsbag0
(g232
g2
Ntp1525
Rp1526
(dp1527
g42
I00
sg48
I01
sg49
I00
sg19
(lp1528
g1410
ag1411
ag1412
ag1413
ag1414
asg43
Nsg1410
g0
(g319
g2
Ntp1529
Rp1530
(dp1531
g42
I00
sg48
I01
sg49
I00
sg50
I0
sbsg1411
g0
(g78
g2
Ntp1532
Rp1533
(dp1534
g42
I00
sg48
I01
sg49
I00
sg50
F0.0
sbsg1412
g0
(g78
g2
Ntp1535
Rp1536
(dp1537
g42
I00
sg48
I01
sg49
I00
sg50
F1.0
sbsg1413
g0
(g78
g2
Ntp1538
Rp1539
(dp1540
g42
I00
sg48
I01
sg49
I00
sg50
F0.0
sbsg1414
g0
(g78
g2
Ntp1541
Rp1542
(dp1543
g42
I00
sg48
I01
sg49
I00
sg50
F0.0
sbsbatp1544
Rp1545
(dp1546
g42
I00
sg48
I01
sg49
I00
sg103
I1
sbsg139
V/cvmfs/cms.cern.ch/slc7_amd64_gcc12/cms/cmssw/CMSSW_14_1_0_pre2/src/CalibCalorimetry/HcalPlugins/python/Hcal_Conditions_forGlobalTag_cff.py
p1547
sg141
I16
sg142
g810
sbssV_Process__esproducers
p1548
(dp1549
VCSCGeometryESModule
p1550
g0
(cFWCore.ParameterSet.Modules
ESProducer
p1551
g2
Ntp1552
Rp1553
(dp1554
g17
g1550
sg19
(lp1555
VfromDDD
p1556
aVfromDD4hep
p1557
aValignmentsLabel
p1558
ag645
aVuseRealWireGeometry
p1559
aVuseOnlyWiresInME1a
p1560
aVuseGangedStripsInME1a
p1561
aVuseCentreTIOffsets
p1562
aVapplyAlignment
p1563
aVdebugV
p1564
asg42
I00
sg43
Nsg1556
g0
(g120
g2
Ntp1565
Rp1566
(dp1567
g42
I00
sg48
I01
sg49
I00
sg50
I00
sbsg49
I01
sg1557
g0
(g120
g2
Ntp1568
Rp1569
(dp1570
g42
I00
sg48
I01
sg49
I00
sg50
I00
sbsg1558
g0
(g44
g2
Ntp1571
Rp1572
(dp1573
g42
I00
sg48
I01
sg49
I00
sg50
g59
sbsg645
g0
(g44
g2
Ntp1574
Rp1575
(dp1576
g42
I00
sg48
I01
sg49
I00
sg50
g59
sbsg1559
g0
(g120
g2
Ntp1577
Rp1578
(dp1579
g42
I00
sg48
I01
sg49
I00
sg50
I01
sbsg1560
g0
(g120
g2
Ntp1580
Rp1581
(dp1582
g42
I00
sg48
I01
sg49
I00
sg50
I00
sbsg1561
g0
(g120
g2
Ntp1583
Rp1584
(dp1585
g42
I00
sg48
I01
sg49
I01
sg50
I00
sbsg1562
g0
(g120
g2
Ntp1586
Rp1587
(dp1588
g42
I00
sg48
I01
sg49
I00
sg50
I00
sbsg1563
g0
(g120
g2
Ntp1589
Rp1590
(dp1591
g42
I00
sg48
I01
sg49
I00
sg50
I01
sbsg1564
g0
(g120
g2
Ntp1592
Rp1593
(dp1594
g42
I00
sg48
I00
sg49
I00
sg50
I00
sbsg139
g171
sg141
I55
sg142
g1550
sbsVCaloGeometryBuilder
p1595
g0
(g1551
g2
Ntp1596
Rp1597
(dp1598
g17
g1595
sg19
(lp1599
VSelectedCalos
p1600
asg42
I00
sg43
Nsg1600
g0
(g92
g93
(lp1601
VHCAL
p1602
aVZDC
p1603
aVEcalBarrel
p1604
aVEcalEndcap
p1605
aVEcalPreshower
p1606
aVTOWER
p1607
atp1608
Rp1609
(dp1610
g42
I00
sg48
I01
sg49
I01
sg103
I1
sbsg49
I01
sg139
g171
sg141
I55
sg142
g1595
sbsVCaloTopologyBuilder
p1611
g0
(g1551
g2
Ntp1612
Rp1613
(dp1614
g17
g1611
sg19
(lp1615
sg42
I00
sg43
Nsg49
I00
sg139
g171
sg141
I55
sg142
g1611
sbsVCaloTowerGeometryFromDBEP
p1616
g0
(g1551
g2
Ntp1617
Rp1618
(dp1619
g17
g1616
sg19
(lp1620
g1563
asg42
I00
sg43
Nsg1563
g0
(g120
g2
Ntp1621
Rp1622
(dp1623
g42
I00
sg48
I01
sg49
I00
sg50
I00
sbsg49
I00
sg139
g171
sg141
I55
sg142
g1616
sbsVCaloTowerTopologyEP
p1624
g0
(g1551
g2
Ntp1625
Rp1626
(dp1627
g17
g1624
sg19
(lp1628
sg42
I00
sg43
Nsg49
I00
sg139
g171
sg141
I55
sg142
g1624
sbsVCastorGeometryFromDBEP
p1629
g0
(g1551
g2
Ntp1630
Rp1631
(dp1632
g17
g1629
sg19
(lp1633
g1563
asg42
I00
sg43
Nsg1563
g0
(g120
g2
Ntp1634
Rp1635
(dp1636
g42
I00
sg48
I01
sg49
I00
sg50
I00
sbsg49
I00
sg139
g171
sg141
I55
sg142
g1629
sbsVDTGeometryESModule
p1637
g0
(g1551
g2
Ntp1638
Rp1639
(dp1640
g17
g1637
sg19
(lp1641
g1556
ag1557
aVDDDetector
p1642
ag1558
ag645
aVattribute
p1643
aVvalue
p1644
ag1563
asg42
I00
sg43
Nsg1556
g0
(g120
g2
Ntp1645
Rp1646
(dp1647
g42
I00
sg48
I01
sg49
I01
sg50
I00
sbsg49
I01
sg1557
g0
(g120
g2
Ntp1648
Rp1649
(dp1650
g42
I00
sg48
I01
sg49
I00
sg50
I00
sbsg1642
g0
(cFWCore.ParameterSet.Types
ESInputTag
p1651
g2
Ntp1652
Rp1653
(dp1654
g42
I00
sg48
I01
sg49
I00
sV_ESInputTag__moduleLabel
p1655
g59
sV_ESInputTag__data
p1656
g59
sbsg1558
g0
(g44
g2
Ntp1657
Rp1658
(dp1659
g42
I00
sg48
I01
sg49
I00
sg50
g59
sbsg645
g0
(g44
g2
Ntp1660
Rp1661
(dp1662
g42
I00
sg48
I01
sg49
I00
sg50
g59
sbsg1643
g0
(g44
g2
Ntp1663
Rp1664
(dp1665
g42
I00
sg48
I01
sg49
I00
sg50
VMuStructure
p1666
sbsg1644
g0
(g44
g2
Ntp1667
Rp1668
(dp1669
g42
I00
sg48
I01
sg49
I00
sg50
VMuonBarrelDT
p1670
sbsg1563
g0
(g120
g2
Ntp1671
Rp1672
(dp1673
g42
I00
sg48
I01
sg49
I00
sg50
I01
sbsg139
g171
sg141
I55
sg142
g1637
sbsVEcalBarrelGeometryFromDBEP
p1674
g0
(g1551
g2
Ntp1675
Rp1676
(dp1677
g17
g1674
sg19
(lp1678
g1563
asg42
I00
sg43
Nsg1563
g0
(g120
g2
Ntp1679
Rp1680
(dp1681
g42
I00
sg48
I01
sg49
I01
sg50
I01
sbsg49
I01
sg139
g171
sg141
I55
sg142
g1674
sbsVEcalElectronicsMappingBuilder
p1682
g0
(g1551
g2
Ntp1683
Rp1684
(dp1685
g17
g1682
sg19
(lp1686
sg42
I00
sg43
Nsg49
I00
sg139
g171
sg141
I55
sg142
g1682
sbsVEcalEndcapGeometryFromDBEP
p1687
g0
(g1551
g2
Ntp1688
Rp1689
(dp1690
g17
g1687
sg19
(lp1691
g1563
asg42
I00
sg43
Nsg1563
g0
(g120
g2
Ntp1692
Rp1693
(dp1694
g42
I00
sg48
I01
sg49
I01
sg50
I01
sbsg49
I01
sg139
g171
sg141
I55
sg142
g1687
sbsVEcalPreshowerGeometryFromDBEP
p1695
g0
(g1551
g2
Ntp1696
Rp1697
(dp1698
g17
g1695
sg19
(lp1699
g1563
asg42
I00
sg43
Nsg1563
g0
(g120
g2
Ntp1700
Rp1701
(dp1702
g42
I00
sg48
I01
sg49
I01
sg50
I01
sbsg49
I01
sg139
g171
sg141
I55
sg142
g1695
sbsVEcalTrigTowerConstituentsMapBuilder
p1703
g0
(g1551
g2
Ntp1704
Rp1705
(dp1706
g17
g1703
sg19
(lp1707
VMapFile
p1708
asg42
I00
sg43
Nsg1708
g0
(g44
g2
Ntp1709
Rp1710
(dp1711
g42
I00
sg48
I00
sg49
I00
sg50
VGeometry/EcalMapping/data/EndCap_TTMap.txt
p1712
sbsg49
I00
sg139
g171
sg141
I55
sg142
g1703
sbsVGlobalTrackingGeometryESProducer
p1713
g0
(g1551
g2
Ntp1714
Rp1715
(dp1716
g17
g1713
sg19
(lp1717
sg42
I00
sg43
Nsg49
I00
sg139
g171
sg141
I55
sg142
g1713
sbsVHcalAlignmentEP
p1718
g0
(g1551
g2
Ntp1719
Rp1720
(dp1721
g17
g1718
sg19
(lp1722
sg42
I00
sg43
Nsg49
I00
sg139
g171
sg141
I55
sg142
g1718
sbsVHcalGeometryFromDBEP
p1723
g0
(g1551
g2
Ntp1724
Rp1725
(dp1726
g17
g1723
sg19
(lp1727
g1563
asg42
I00
sg43
Nsg1563
g0
(g120
g2
Ntp1728
Rp1729
(dp1730
g42
I00
sg48
I01
sg49
I01
sg50
I01
sbsg49
I01
sg139
g171
sg141
I55
sg142
g1723
sbsVMuonDetLayerGeometryESProducer
p1731
g0
(g1551
g2
Ntp1732
Rp1733
(dp1734
g17
g1731
sg19
(lp1735
sg42
I00
sg43
Nsg49
I00
sg139
g171
sg141
I55
sg142
g1731
sbsVRPCGeometryESModule
p1736
g0
(g1551
g2
Ntp1737
Rp1738
(dp1739
g17
g1736
sg19
(lp1740
g1556
ag1557
asg42
I00
sg43
Nsg1556
g0
(g120
g2
Ntp1741
Rp1742
(dp1743
g42
I00
sg48
I00
sg49
I00
sg50
I00
sbsg49
I00
sg1557
g0
(g120
g2
Ntp1744
Rp1745
(dp1746
g42
I00
sg48
I00
sg49
I00
sg50
I00
sbsg139
g171
sg141
I55
sg142
g1736
sbsVTrackerRecoGeometryESProducer
p1747
g0
(g1551
g2
Ntp1748
Rp1749
(dp1750
g17
g1747
sg19
(lp1751
VusePhase2Stacks
p1752
asg42
I00
sg43
Nsg1752
g0
(g120
g2
Ntp1753
Rp1754
(dp1755
g42
I00
sg48
I01
sg49
I00
sg50
I00
sbsg49
I00
sg139
g171
sg141
I55
sg142
g1747
sbsVZdcGeometryFromDBEP
p1756
g0
(g1551
g2
Ntp1757
Rp1758
(dp1759
g17
g1756
sg19
(lp1760
g1563
asg42
I00
sg43
Nsg1563
g0
(g120
g2
Ntp1761
Rp1762
(dp1763
g42
I00
sg48
I01
sg49
I00
sg50
I00
sbsg49
I00
sg139
g171
sg141
I55
sg142
g1756
sbsVfakeForIdealAlignment
p1764
g0
(g1551
g2
Ntp1765
Rp1766
(dp1767
g17
VFakeAlignmentProducer
p1768
sg19
(lp1769
g645
asg42
I00
sg43
Nsg645
g0
(g44
g2
Ntp1770
Rp1771
(dp1772
g42
I00
sg48
I01
sg49
I01
sg50
VfakeForIdeal
p1773
sbsg49
I01
sg139
V/cvmfs/cms.cern.ch/slc7_amd64_gcc12/cms/cmssw/CMSSW_14_1_0_pre2/src/Alignment/CommonAlignmentProducer/python/fakeForIdealAlignmentProducer_cfi.py
p1774
sg141
I5
sg142
g1764
sbsVhcalDDDRecConstants
p1775
g0
(g1551
g2
Ntp1776
Rp1777
(dp1778
g17
VHcalDDDRecConstantsESModule
p1779
sg19
(lp1780
g645
asg42
I00
sg43
Nsg645
g0
(g44
g2
Ntp1781
Rp1782
(dp1783
g42
I00
sg48
I01
sg49
I00
sg50
g59
sbsg49
I00
sg139
g171
sg141
I55
sg142
g1775
sbsVhcalDDDSimConstants
p1784
g0
(g1551
g2
Ntp1785
Rp1786
(dp1787
g17
VHcalDDDSimConstantsESModule
p1788
sg19
(lp1789
g645
asg42
I00
sg43
Nsg645
g0
(g44
g2
Ntp1790
Rp1791
(dp1792
g42
I00
sg48
I01
sg49
I00
sg50
g59
sbsg49
I00
sg139
g171
sg141
I55
sg142
g1784
sbsVhcalTopologyIdeal
p1793
g0
(g1551
g2
Ntp1794
Rp1795
(dp1796
g17
VHcalTopologyIdealEP
p1797
sg19
(lp1798
VExclude
p1799
aVMergePosition
p1800
ag645
asg42
I00
sg43
Nsg1799
g0
(g44
g2
Ntp1801
Rp1802
(dp1803
g42
I00
sg48
I00
sg49
I00
sg50
g59
sbsg49
I00
sg1800
g0
(g120
g2
Ntp1804
Rp1805
(dp1806
g42
I00
sg48
I00
sg49
I00
sg50
I00
sbsg645
g0
(g44
g2
Ntp1807
Rp1808
(dp1809
g42
I00
sg48
I01
sg49
I00
sg50
g59
sbsg139
g171
sg141
I55
sg142
g1793
sbsVidealForDigiCSCGeometry
p1810
g0
(g1551
g2
Ntp1811
Rp1812
(dp1813
g17
g1550
sg19
(lp1814
g1556
ag1557
ag1558
ag645
ag1559
ag1560
ag1561
ag1562
ag1563
ag1564
asg42
I00
sg43
Nsg1556
g0
(g120
g2
Ntp1815
Rp1816
(dp1817
g42
I00
sg48
I01
sg49
I00
sg50
I00
sbsg49
I01
sg1557
g0
(g120
g2
Ntp1818
Rp1819
(dp1820
g42
I00
sg48
I01
sg49
I00
sg50
I00
sbsg1558
g0
(g44
g2
Ntp1821
Rp1822
(dp1823
g42
I00
sg48
I01
sg49
I01
sg50
g1773
sbsg645
g0
(g44
g2
Ntp1824
Rp1825
(dp1826
g42
I00
sg48
I01
sg49
I01
sg50
VidealForDigi
p1827
sbsg1559
g0
(g120
g2
Ntp1828
Rp1829
(dp1830
g42
I00
sg48
I01
sg49
I00
sg50
I01
sbsg1560
g0
(g120
g2
Ntp1831
Rp1832
(dp1833
g42
I00
sg48
I01
sg49
I00
sg50
I00
sbsg1561
g0
(g120
g2
Ntp1834
Rp1835
(dp1836
g42
I00
sg48
I01
sg49
I01
sg50
I00
sbsg1562
g0
(g120
g2
Ntp1837
Rp1838
(dp1839
g42
I00
sg48
I01
sg49
I00
sg50
I00
sbsg1563
g0
(g120
g2
Ntp1840
Rp1841
(dp1842
g42
I00
sg48
I01
sg49
I01
sg50
I00
sbsg1564
g0
(g120
g2
Ntp1843
Rp1844
(dp1845
g42
I00
sg48
I00
sg49
I00
sg50
I00
sbsg139
V/cvmfs/cms.cern.ch/slc7_amd64_gcc12/cms/cmssw/CMSSW_14_1_0_pre2/src/Geometry/CSCGeometryBuilder/python/idealForDigiCscGeometryDB_cff.py
p1846
sg141
I8
sg142
g1810
sbsVidealForDigiDTGeometry
p1847
g0
(g1551
g2
Ntp1848
Rp1849
(dp1850
g17
g1637
sg19
(lp1851
g1556
ag1557
ag1642
ag1558
ag645
ag1643
ag1644
ag1563
asg42
I00
sg43
Nsg1556
g0
(g120
g2
Ntp1852
Rp1853
(dp1854
g42
I00
sg48
I01
sg49
I01
sg50
I00
sbsg49
I01
sg1557
g0
(g120
g2
Ntp1855
Rp1856
(dp1857
g42
I00
sg48
I01
sg49
I00
sg50
I00
sbsg1642
g0
(g1651
g2
Ntp1858
Rp1859
(dp1860
g42
I00
sg48
I01
sg49
I00
sg1655
g59
sg1656
g59
sbsg1558
g0
(g44
g2
Ntp1861
Rp1862
(dp1863
g42
I00
sg48
I01
sg49
I01
sg50
g1773
sbsg645
g0
(g44
g2
Ntp1864
Rp1865
(dp1866
g42
I00
sg48
I01
sg49
I01
sg50
g1827
sbsg1643
g0
(g44
g2
Ntp1867
Rp1868
(dp1869
g42
I00
sg48
I01
sg49
I00
sg50
g1666
sbsg1644
g0
(g44
g2
Ntp1870
Rp1871
(dp1872
g42
I00
sg48
I01
sg49
I00
sg50
g1670
sbsg1563
g0
(g120
g2
Ntp1873
Rp1874
(dp1875
g42
I00
sg48
I01
sg49
I01
sg50
I00
sbsg139
V/cvmfs/cms.cern.ch/slc7_amd64_gcc12/cms/cmssw/CMSSW_14_1_0_pre2/src/Geometry/DTGeometryBuilder/python/idealForDigiDtGeometryDB_cff.py
p1876
sg141
I8
sg142
g1847
sbsVidealForDigiTrackerGeometry
p1877
g0
(g1551
g2
Ntp1878
Rp1879
(dp1880
g17
VTrackerDigiGeometryESModule
p1881
sg19
(lp1882
g645
ag1556
ag1563
ag1558
asg42
I00
sg43
Nsg645
g0
(g44
g2
Ntp1883
Rp1884
(dp1885
g42
I00
sg48
I01
sg49
I01
sg50
g1827
sbsg49
I01
sg1556
g0
(g120
g2
Ntp1886
Rp1887
(dp1888
g42
I00
sg48
I01
sg49
I00
sg50
I00
sbsg1563
g0
(g120
g2
Ntp1889
Rp1890
(dp1891
g42
I00
sg48
I01
sg49
I01
sg50
I00
sbsg1558
g0
(g44
g2
Ntp1892
Rp1893
(dp1894
g42
I00
sg48
I01
sg49
I01
sg50
g1773
sbsg139
V/cvmfs/cms.cern.ch/slc7_amd64_gcc12/cms/cmssw/CMSSW_14_1_0_pre2/src/Geometry/TrackerGeometryBuilder/python/idealForDigiTrackerGeometryDB_cff.py
p1895
sg141
I8
sg142
g1877
sbsVmuonGeometryConstants
p1896
g0
(g1551
g2
Ntp1897
Rp1898
(dp1899
g17
VMuonGeometryConstantsESModule
p1900
sg19
(lp1901
g1557
ag645
asg42
I00
sg43
Nsg1557
g0
(g120
g2
Ntp1902
Rp1903
(dp1904
g42
I00
sg48
I01
sg49
I00
sg50
I01
sbsg49
I01
sg645
g0
(g44
g2
Ntp1905
Rp1906
(dp1907
g42
I00
sg48
I01
sg49
I00
sg50
g59
sbsg139
g171
sg141
I55
sg142
g1896
sbsVtrackerGeometryDB
p1908
g0
(g1551
g2
Ntp1909
Rp1910
(dp1911
g17
g1881
sg19
(lp1912
g645
ag1556
ag1563
ag1558
asg42
I00
sg43
Nsg645
g0
(g44
g2
Ntp1913
Rp1914
(dp1915
g42
I00
sg48
I01
sg49
I00
sg50
g59
sbsg49
I00
sg1556
g0
(g120
g2
Ntp1916
Rp1917
(dp1918
g42
I00
sg48
I01
sg49
I00
sg50
I00
sbsg1563
g0
(g120
g2
Ntp1919
Rp1920
(dp1921
g42
I00
sg48
I01
sg49
I00
sg50
I01
sbsg1558
g0
(g44
g2
Ntp1922
Rp1923
(dp1924
g42
I00
sg48
I01
sg49
I00
sg50
g59
sbsg139
g171
sg141
I55
sg142
g1908
sbsVtrackerNumberingGeometryDB
p1925
g0
(g1551
g2
Ntp1926
Rp1927
(dp1928
g17
VTrackerGeometricDetESModule
p1929
sg19
(lp1930
g1556
ag1557
ag645
asg42
I00
sg43
Nsg1556
g0
(g120
g2
Ntp1931
Rp1932
(dp1933
g42
I00
sg48
I01
sg49
I00
sg50
I00
sbsg49
I00
sg1557
g0
(g120
g2
Ntp1934
Rp1935
(dp1936
g42
I00
sg48
I01
sg49
I00
sg50
I00
sbsg645
g0
(g44
g2
Ntp1937
Rp1938
(dp1939
g42
I00
sg48
I01
sg49
I00
sg50
g59
sbsg139
g171
sg141
I55
sg142
g1925
sbsVtrackerTopology
p1940
g0
(g1551
g2
Ntp1941
Rp1942
(dp1943
g17
VTrackerTopologyEP
p1944
sg19
(lp1945
g645
asg42
I00
sg43
Nsg645
g0
(g44
g2
Ntp1946
Rp1947
(dp1948
g42
I00
sg48
I01
sg49
I00
sg50
g59
sbsg49
I00
sg139
g171
sg141
I55
sg142
g1940
sbsVGEMGeometryESModule
p1949
g0
(g1551
g2
Ntp1950
Rp1951
(dp1952
g17
g1949
sg19
(lp1953
g1556
ag1557
ag645
ag1558
ag1563
asg42
I00
sg43
Nsg1556
g0
(g120
g2
Ntp1954
Rp1955
(dp1956
g42
I00
sg48
I01
sg49
I00
sg50
I00
sbsg49
I01
sg1557
g0
(g120
g2
Ntp1957
Rp1958
(dp1959
g42
I00
sg48
I01
sg49
I00
sg50
I00
sbsg645
g0
(g44
g2
Ntp1960
Rp1961
(dp1962
g42
I00
sg48
I01
sg49
I00
sg50
g59
sbsg1558
g0
(g44
g2
Ntp1963
Rp1964
(dp1965
g42
I00
sg48
I01
sg49
I00
sg50
g59
sbsg1563
g0
(g120
g2
Ntp1966
Rp1967
(dp1968
g42
I00
sg48
I01
sg49
I01
sg50
I01
sbsg139
g171
sg141
I55
sg142
g1949
sbsVParabolicParametrizedMagneticFieldProducer
p1969
g0
(g1551
g2
Ntp1970
Rp1971
(dp1972
g17
VAutoParametrizedMagneticFieldProducer
p1973
sg19
(lp1974
Vversion
p1975
aVlabel
p1976
aVvalueOverride
p1977
asg42
I00
sg43
Nsg1975
g0
(g44
g2
Ntp1978
Rp1979
(dp1980
g42
I00
sg48
I01
sg49
I00
sg50
VParabolic
p1981
sbsg49
I01
sg1976
g0
(g44
g2
Ntp1982
Rp1983
(dp1984
g42
I00
sg48
I00
sg49
I01
sg50
VParabolicMf
p1985
sbsg1977
g0
(g319
g2
Ntp1986
Rp1987
(dp1988
g42
I00
sg48
I01
sg49
I00
sg50
I-1
sbsg139
g171
sg141
I55
sg142
g1969
sbsVVolumeBasedMagneticFieldESProducer
p1989
g0
(g1551
g2
Ntp1990
Rp1991
(dp1992
g17
VDD4hep_VolumeBasedMagneticFieldESProducerFromDB
p1993
sg19
(lp1994
g1976
aVdebugBuilder
p1995
ag1977
asg42
I00
sg43
Nsg49
I01
sg139
g171
sg141
I55
sg1976
g0
(g44
g2
Ntp1996
Rp1997
(dp1998
g42
I00
sg48
I00
sg49
I00
sg50
g59
sbsg1995
g0
(g120
g2
Ntp1999
Rp2000
(dp2001
g42
I00
sg48
I00
sg49
I00
sg50
I00
sbsg1977
g0
(g319
g2
Ntp2002
Rp2003
(dp2004
g42
I00
sg48
I01
sg49
I00
sg50
I-1
sbsg142
g1989
sbsVCastorDbProducer
p2005
g0
(g1551
g2
Ntp2006
Rp2007
(dp2008
g17
g2005
sg19
(lp2009
g645
asg42
I00
sg43
Nsg645
g0
(g44
g2
Ntp2010
Rp2011
(dp2012
g42
I00
sg48
I01
sg49
I00
sg50
g59
sbsg49
I00
sg139
g171
sg141
I55
sg142
g2005
sbsVEcalLaserCorrectionService
p2013
g0
(g1551
g2
Ntp2014
Rp2015
(dp2016
g17
g2013
sg19
(lp2017
VmaxExtrapolationTimeInSec
p2018
asg42
I00
sg43
Nsg2018
g0
(cFWCore.ParameterSet.Types
uint32
p2019
g2
Ntp2020
Rp2021
(dp2022
g42
I00
sg48
I01
sg49
I00
sg50
I0
sbsg49
I00
sg139
g171
sg141
I55
sg142
g2013
sbsVEcalLaserCorrectionServiceMC
p2023
g0
(g1551
g2
Ntp2024
Rp2025
(dp2026
g17
g2023
sg19
(lp2027
g645
asg42
I00
sg43
Nsg645
g0
(g44
g2
Ntp2028
Rp2029
(dp2030
g42
I00
sg48
I01
sg49
I00
sg50
g59
sbsg49
I00
sg139
g171
sg141
I55
sg142
g2023
sbsVSiStripRecHitMatcherESProducer
p2031
g0
(g1551
g2
Ntp2032
Rp2033
(dp2034
g17
g2031
sg19
(lp2035
VComponentName
p2036
aVNSigmaInside
p2037
aVPreFilter
p2038
asg42
I00
sg43
Nsg2036
g0
(g44
g2
Ntp2039
Rp2040
(dp2041
g42
I00
sg48
I01
sg49
I00
sg50
VStandardMatcher
p2042
sbsg49
I00
sg2037
g0
(g78
g2
Ntp2043
Rp2044
(dp2045
g42
I00
sg48
I01
sg49
I00
sg50
F3.0
sbsg2038
g0
(g120
g2
Ntp2046
Rp2047
(dp2048
g42
I00
sg48
I01
sg49
I00
sg50
I00
sbsg139
g171
sg141
I55
sg142
g2031
sbsVStripCPEfromTrackAngleESProducer
p2049
g0
(g1551
g2
Ntp2050
Rp2051
(dp2052
g17
VStripCPEESProducer
p2053
sg19
(lp2054
g2036
aVComponentType
p2055
aVparameters
p2056
asg42
I00
sg43
Nsg2036
g0
(g44
g2
Ntp2057
Rp2058
(dp2059
g42
I00
sg48
I01
sg49
I01
sg50
VStripCPEfromTrackAngle
p2060
sbsg49
I00
sg2055
g0
(g44
g2
Ntp2061
Rp2062
(dp2063
g42
I00
sg48
I01
sg49
I01
sg50
g2060
sbsg2056
g0
(g232
g2
Ntp2064
Rp2065
(dp2066
g42
I00
sg48
I01
sg49
I00
sg19
(lp2067
VmLC_P0
p2068
aVmLC_P1
p2069
aVmLC_P2
p2070
aVmTIB_P0
p2071
aVmTIB_P1
p2072
aVmTOB_P0
p2073
aVmTOB_P1
p2074
aVmTID_P0
p2075
aVmTID_P1
p2076
aVmTEC_P0
p2077
aVmTEC_P1
p2078
aVuseLegacyError
p2079
aVmaxChgOneMIP
p2080
asg43
Nsg2068
g0
(g78
g2
Ntp2081
Rp2082
(dp2083
g42
I00
sg48
I01
sg49
I00
sg50
F-0.326
sbsg2069
g0
(g78
g2
Ntp2084
Rp2085
(dp2086
g42
I00
sg48
I01
sg49
I00
sg50
F0.618
sbsg2070
g0
(g78
g2
Ntp2087
Rp2088
(dp2089
g42
I00
sg48
I01
sg49
I00
sg50
F0.3
sbsg2071
g0
(g78
g2
Ntp2090
Rp2091
(dp2092
g42
I00
sg48
I01
sg49
I00
sg50
F-0.742
sbsg2072
g0
(g78
g2
Ntp2093
Rp2094
(dp2095
g42
I00
sg48
I01
sg49
I00
sg50
F0.202
sbsg2073
g0
(g78
g2
Ntp2096
Rp2097
(dp2098
g42
I00
sg48
I01
sg49
I00
sg50
F-1.026
sbsg2074
g0
(g78
g2
Ntp2099
Rp2100
(dp2101
g42
I00
sg48
I01
sg49
I00
sg50
F0.253
sbsg2075
g0
(g78
g2
Ntp2102
Rp2103
(dp2104
g42
I00
sg48
I01
sg49
I00
sg50
F-1.427
sbsg2076
g0
(g78
g2
Ntp2105
Rp2106
(dp2107
g42
I00
sg48
I01
sg49
I00
sg50
F0.433
sbsg2077
g0
(g78
g2
Ntp2108
Rp2109
(dp2110
g42
I00
sg48
I01
sg49
I00
sg50
F-1.885
sbsg2078
g0
(g78
g2
Ntp2111
Rp2112
(dp2113
g42
I00
sg48
I01
sg49
I00
sg50
F0.471
sbsg2079
g0
(g120
g2
Ntp2114
Rp2115
(dp2116
g42
I00
sg48
I01
sg49
I00
sg50
I00
sbsg2080
g0
(g78
g2
Ntp2117
Rp2118
(dp2119
g42
I00
sg48
I01
sg49
I00
sg50
F6000.0
sbsbsg139
V/cvmfs/cms.cern.ch/slc7_amd64_gcc12/cms/cmssw/CMSSW_14_1_0_pre2/src/RecoLocalTracker/SiStripRecHitConverter/python/StripCPEfromTrackAngle_cfi.py
p2120
sg141
I4
sg142
g2049
sbsVctppsBeamParametersFromLHCInfoESSource
p2121
g0
(g1551
g2
Ntp2122
Rp2123
(dp2124
g17
VCTPPSBeamParametersFromLHCInfoESSource
p2125
sg19
(lp2126
VlhcInfoLabel
p2127
aVlhcInfoPerLSLabel
p2128
aVlhcInfoPerFillLabel
p2129
aVuseNewLHCInfo
p2130
aVbeamDivX45
p2131
aVbeamDivY45
p2132
aVbeamDivX56
p2133
aVbeamDivY56
p2134
aVvtxOffsetX45
p2135
aVvtxOffsetY45
p2136
aVvtxOffsetZ45
p2137
aVvtxOffsetX56
p2138
aVvtxOffsetY56
p2139
aVvtxOffsetZ56
p2140
aVvtxStddevX
p2141
aVvtxStddevY
p2142
aVvtxStddevZ
p2143
ag645
asg42
I00
sg43
Nsg2127
g0
(g44
g2
Ntp2144
Rp2145
(dp2146
g42
I00
sg48
I01
sg49
I00
sg50
g59
sbsg49
I01
sg2128
g0
(g44
g2
Ntp2147
Rp2148
(dp2149
g42
I00
sg48
I01
sg49
I00
sg50
g59
sbsg2129
g0
(g44
g2
Ntp2150
Rp2151
(dp2152
g42
I00
sg48
I01
sg49
I00
sg50
g59
sbsg2130
g0
(g120
g2
Ntp2153
Rp2154
(dp2155
g42
I00
sg48
I01
sg49
I01
sg50
I01
sbsg2131
g0
(g78
g2
Ntp2156
Rp2157
(dp2158
g42
I00
sg48
I01
sg49
I00
sg50
F0.1
sbsg2132
g0
(g78
g2
Ntp2159
Rp2160
(dp2161
g42
I00
sg48
I01
sg49
I00
sg50
F0.1
sbsg2133
g0
(g78
g2
Ntp2162
Rp2163
(dp2164
g42
I00
sg48
I01
sg49
I00
sg50
F0.1
sbsg2134
g0
(g78
g2
Ntp2165
Rp2166
(dp2167
g42
I00
sg48
I01
sg49
I00
sg50
F0.1
sbsg2135
g0
(g78
g2
Ntp2168
Rp2169
(dp2170
g42
I00
sg48
I01
sg49
I00
sg50
F0.01
sbsg2136
g0
(g78
g2
Ntp2171
Rp2172
(dp2173
g42
I00
sg48
I01
sg49
I00
sg50
F0.01
sbsg2137
g0
(g78
g2
Ntp2174
Rp2175
(dp2176
g42
I00
sg48
I01
sg49
I00
sg50
F0.01
sbsg2138
g0
(g78
g2
Ntp2177
Rp2178
(dp2179
g42
I00
sg48
I01
sg49
I00
sg50
F0.01
sbsg2139
g0
(g78
g2
Ntp2180
Rp2181
(dp2182
g42
I00
sg48
I01
sg49
I00
sg50
F0.01
sbsg2140
g0
(g78
g2
Ntp2183
Rp2184
(dp2185
g42
I00
sg48
I01
sg49
I00
sg50
F0.01
sbsg2141
g0
(g78
g2
Ntp2186
Rp2187
(dp2188
g42
I00
sg48
I01
sg49
I00
sg50
F0.02
sbsg2142
g0
(g78
g2
Ntp2189
Rp2190
(dp2191
g42
I00
sg48
I01
sg49
I00
sg50
F0.02
sbsg2143
g0
(g78
g2
Ntp2192
Rp2193
(dp2194
g42
I00
sg48
I01
sg49
I00
sg50
F0.02
sbsg645
g0
(g44
g2
Ntp2195
Rp2196
(dp2197
g42
I00
sg48
I01
sg49
I00
sg50
g59
sbsg139
V/cvmfs/cms.cern.ch/slc7_amd64_gcc12/cms/cmssw/CMSSW_14_1_0_pre2/src/CalibPPS/ESProducers/python/ctppsBeamParametersFromLHCInfoESSource_cfi.py
p2198
sg141
I2
sg142
g2121
sbsVctppsInterpolatedOpticalFunctionsESSource
p2199
g0
(g1551
g2
Ntp2200
Rp2201
(dp2202
g17
VCTPPSInterpolatedOpticalFunctionsESSource
p2203
sg19
(lp2204
g2127
ag2129
ag2128
aVopticsLabel
p2205
ag2130
ag645
asg42
I00
sg43
Nsg2127
g0
(g44
g2
Ntp2206
Rp2207
(dp2208
g42
I00
sg48
I01
sg49
I00
sg50
g59
sbsg49
I01
sg2129
g0
(g44
g2
Ntp2209
Rp2210
(dp2211
g42
I00
sg48
I01
sg49
I00
sg50
g59
sbsg2128
g0
(g44
g2
Ntp2212
Rp2213
(dp2214
g42
I00
sg48
I01
sg49
I00
sg50
g59
sbsg2205
g0
(g44
g2
Ntp2215
Rp2216
(dp2217
g42
I00
sg48
I01
sg49
I00
sg50
g59
sbsg2130
g0
(g120
g2
Ntp2218
Rp2219
(dp2220
g42
I00
sg48
I01
sg49
I01
sg50
I01
sbsg645
g0
(g44
g2
Ntp2221
Rp2222
(dp2223
g42
I00
sg48
I01
sg49
I00
sg50
g59
sbsg139
V/cvmfs/cms.cern.ch/slc7_amd64_gcc12/cms/cmssw/CMSSW_14_1_0_pre2/src/CalibPPS/ESProducers/python/ctppsInterpolatedOpticalFunctionsESSource_cfi.py
p2224
sg141
I2
sg142
g2199
sbsVhcal_db_producer
p2225
g0
(g1551
g2
Ntp2226
Rp2227
(dp2228
g17
VHcalDbProducer
p2229
sg19
(lp2230
Vdump
p2231
aVfile
p2232
asg42
I00
sg43
Nsg2231
g0
(g92
g93
(lp2233
g59
atp2234
Rp2235
(dp2236
g42
I00
sg48
I00
sg49
I00
sg103
I1
sbsg49
I00
sg2232
g0
(g44
g2
Ntp2237
Rp2238
(dp2239
g42
I00
sg48
I00
sg49
I00
sg50
g59
sbsg139
g171
sg141
I55
sg142
g2225
sbsVmultipleScatteringParametrisationMakerESProducer
p2240
g0
(g1551
g2
Ntp2241
Rp2242
(dp2243
g17
VMultipleScatteringParametrisationMakerESProducer
p2244
sg19
(lp2245
g645
asg42
I00
sg43
Nsg645
g0
(g44
g2
Ntp2246
Rp2247
(dp2248
g42
I00
sg48
I01
sg49
I00
sg50
g59
sbsg49
I00
sg139
g171
sg141
I55
sg142
g2240
sbsVsiPixelQualityESProducer
p2249
g0
(g1551
g2
Ntp2250
Rp2251
(dp2252
g17
VSiPixelQualityESProducer
p2253
sg19
(lp2254
VsiPixelQualityFromDbLabel
p2255
aVListOfRecordToMerge
p2256
ag645
asg42
I00
sg43
Nsg2255
g0
(g44
g2
Ntp2257
Rp2258
(dp2259
g42
I00
sg48
I01
sg49
I00
sg50
g59
sbsg49
I00
sg2256
g0
(g613
g93
(lp2260
g0
(g232
g2
Ntp2261
Rp2262
(dp2263
g42
I00
sg48
I01
sg49
I00
sg19
(lp2264
Vrecord
p2265
aVtag
p2266
asg43
Nsg2265
g0
(g44
g2
Ntp2267
Rp2268
(dp2269
g42
I00
sg48
I01
sg49
I00
sg50
VSiPixelQualityFromDbRcd
p2270
sbsg2266
g0
(g44
g2
Ntp2271
Rp2272
(dp2273
g42
I00
sg48
I01
sg49
I00
sg50
g59
sbsbag0
(g232
g2
Ntp2274
Rp2275
(dp2276
g42
I00
sg48
I01
sg49
I00
sg19
(lp2277
g2265
ag2266
asg43
Nsg2265
g0
(g44
g2
Ntp2278
Rp2279
(dp2280
g42
I00
sg48
I01
sg49
I00
sg50
VSiPixelDetVOffRcd
p2281
sbsg2266
g0
(g44
g2
Ntp2282
Rp2283
(dp2284
g42
I00
sg48
I01
sg49
I00
sg50
g59
sbsbatp2285
Rp2286
(dp2287
g42
I00
sg48
I01
sg49
I00
sg103
I1
sbsg645
g0
(g44
g2
Ntp2288
Rp2289
(dp2290
g42
I00
sg48
I01
sg49
I00
sg50
g59
sbsg139
g171
sg141
I55
sg142
g2249
sbsVsiStripBackPlaneCorrectionDepESProducer
p2291
g0
(g1551
g2
Ntp2292
Rp2293
(dp2294
g17
VSiStripBackPlaneCorrectionDepESProducer
p2295
sg19
(lp2296
VLatencyRecord
p2297
aVBackPlaneCorrectionPeakMode
p2298
aVBackPlaneCorrectionDeconvMode
p2299
asg42
I00
sg43
Nsg2297
g0
(g232
g2
Ntp2300
Rp2301
(dp2302
g42
I00
sg48
I01
sg49
I00
sg19
(lp2303
g2265
ag1976
asg43
Nsg2265
g0
(g44
g2
Ntp2304
Rp2305
(dp2306
g42
I00
sg48
I01
sg49
I00
sg50
VSiStripLatencyRcd
p2307
sbsg1976
g0
(g44
g2
Ntp2308
Rp2309
(dp2310
g42
I00
sg48
I00
sg49
I00
sg50
g59
sbsbsg49
I00
sg2298
g0
(g232
g2
Ntp2311
Rp2312
(dp2313
g42
I00
sg48
I01
sg49
I00
sg19
(lp2314
g2265
ag1976
asg43
Nsg2265
g0
(g44
g2
Ntp2315
Rp2316
(dp2317
g42
I00
sg48
I01
sg49
I00
sg50
VSiStripBackPlaneCorrectionRcd
p2318
sbsg1976
g0
(g44
g2
Ntp2319
Rp2320
(dp2321
g42
I00
sg48
I00
sg49
I00
sg50
Vpeak
p2322
sbsbsg2299
g0
(g232
g2
Ntp2323
Rp2324
(dp2325
g42
I00
sg48
I01
sg49
I00
sg19
(lp2326
g2265
ag1976
asg43
Nsg2265
g0
(g44
g2
Ntp2327
Rp2328
(dp2329
g42
I00
sg48
I01
sg49
I00
sg50
g2318
sbsg1976
g0
(g44
g2
Ntp2330
Rp2331
(dp2332
g42
I00
sg48
I00
sg49
I00
sg50
Vdeconvolution
p2333
sbsbsg139
g171
sg141
I55
sg142
g2291
sbsVsiStripGainESProducer
p2334
g0
(g1551
g2
Ntp2335
Rp2336
(dp2337
g17
VSiStripGainESProducer
p2338
sg19
(lp2339
g645
aVprintDebug
p2340
aVAutomaticNormalization
p2341
aVAPVGain
p2342
asg42
I00
sg43
Nsg645
g0
(g44
g2
Ntp2343
Rp2344
(dp2345
g42
I00
sg48
I01
sg49
I00
sg50
g59
sbsg49
I00
sg2340
g0
(g120
g2
Ntp2346
Rp2347
(dp2348
g42
I00
sg48
I00
sg49
I00
sg50
I00
sbsg2341
g0
(g120
g2
Ntp2349
Rp2350
(dp2351
g42
I00
sg48
I01
sg49
I00
sg50
I00
sbsg2342
g0
(g613
g93
(lp2352
g0
(g232
g2
Ntp2353
Rp2354
(dp2355
g42
I00
sg48
I01
sg49
I00
sg19
(lp2356
VRecord
p2357
aVLabel
p2358
aVNormalizationFactor
p2359
asg43
Nsg2357
g0
(g44
g2
Ntp2360
Rp2361
(dp2362
g42
I00
sg48
I01
sg49
I00
sg50
VSiStripApvGainRcd
p2363
sbsg2358
g0
(g44
g2
Ntp2364
Rp2365
(dp2366
g42
I00
sg48
I00
sg49
I00
sg50
g59
sbsg2359
g0
(g78
g2
Ntp2367
Rp2368
(dp2369
g42
I00
sg48
I00
sg49
I00
sg50
F1.0
sbsbag0
(g232
g2
Ntp2370
Rp2371
(dp2372
g42
I00
sg48
I01
sg49
I00
sg19
(lp2373
g2357
ag2358
ag2359
asg43
Nsg2357
g0
(g44
g2
Ntp2374
Rp2375
(dp2376
g42
I00
sg48
I01
sg49
I00
sg50
VSiStripApvGain2Rcd
p2377
sbsg2358
g0
(g44
g2
Ntp2378
Rp2379
(dp2380
g42
I00
sg48
I00
sg49
I00
sg50
g59
sbsg2359
g0
(g78
g2
Ntp2381
Rp2382
(dp2383
g42
I00
sg48
I00
sg49
I00
sg50
F1.0
sbsbatp2384
Rp2385
(dp2386
g42
I00
sg48
I01
sg49
I00
sg103
I1
sbsg139
g171
sg141
I55
sg142
g2334
sbsVsiStripLorentzAngleDepESProducer
p2387
g0
(g1551
g2
Ntp2388
Rp2389
(dp2390
g17
VSiStripLorentzAngleDepESProducer
p2391
sg19
(lp2392
g2297
aVLorentzAnglePeakMode
p2393
aVLorentzAngleDeconvMode
p2394
asg42
I00
sg43
Nsg2297
g0
(g232
g2
Ntp2395
Rp2396
(dp2397
g42
I00
sg48
I01
sg49
I00
sg19
(lp2398
g2265
ag1976
asg43
Nsg2265
g0
(g44
g2
Ntp2399
Rp2400
(dp2401
g42
I00
sg48
I01
sg49
I00
sg50
g2307
sbsg1976
g0
(g44
g2
Ntp2402
Rp2403
(dp2404
g42
I00
sg48
I00
sg49
I00
sg50
g59
sbsbsg49
I00
sg2393
g0
(g232
g2
Ntp2405
Rp2406
(dp2407
g42
I00
sg48
I01
sg49
I00
sg19
(lp2408
g2265
ag1976
asg43
Nsg2265
g0
(g44
g2
Ntp2409
Rp2410
(dp2411
g42
I00
sg48
I01
sg49
I00
sg50
VSiStripLorentzAngleRcd
p2412
sbsg1976
g0
(g44
g2
Ntp2413
Rp2414
(dp2415
g42
I00
sg48
I00
sg49
I00
sg50
g2322
sbsbsg2394
g0
(g232
g2
Ntp2416
Rp2417
(dp2418
g42
I00
sg48
I01
sg49
I00
sg19
(lp2419
g2265
ag1976
asg43
Nsg2265
g0
(g44
g2
Ntp2420
Rp2421
(dp2422
g42
I00
sg48
I01
sg49
I00
sg50
g2412
sbsg1976
g0
(g44
g2
Ntp2423
Rp2424
(dp2425
g42
I00
sg48
I00
sg49
I00
sg50
g2333
sbsbsg139
g171
sg141
I55
sg142
g2387
sbsVsiStripQualityESProducer
p2426
g0
(g1551
g2
Ntp2427
Rp2428
(dp2429
g17
VSiStripQualityESProducer
p2430
sg19
(lp2431
g645
ag2256
aVReduceGranularity
p2432
aVThresholdForReducedGranularity
p2433
aVPrintDebugOutput
p2434
aVUseEmptyRunInfo
p2435
asg42
I00
sg43
Nsg645
g0
(g44
g2
Ntp2436
Rp2437
(dp2438
g42
I00
sg48
I01
sg49
I00
sg50
g59
sbsg49
I01
sg2256
g0
(g613
g93
(lp2439
g0
(g232
g2
Ntp2440
Rp2441
(dp2442
g42
I00
sg48
I01
sg49
I00
sg19
(lp2443
g2265
ag2266
asg43
Nsg2265
g0
(g44
g2
Ntp2444
Rp2445
(dp2446
g42
I00
sg48
I01
sg49
I00
sg50
VSiStripDetVOffRcd
p2447
sbsg2266
g0
(g44
g2
Ntp2448
Rp2449
(dp2450
g42
I00
sg48
I01
sg49
I00
sg50
g59
sbsbag0
(g232
g2
Ntp2451
Rp2452
(dp2453
g42
I00
sg48
I01
sg49
I00
sg19
(lp2454
g2265
ag2266
asg43
Nsg2265
g0
(g44
g2
Ntp2455
Rp2456
(dp2457
g42
I00
sg48
I01
sg49
I00
sg50
VSiStripDetCablingRcd
p2458
sbsg2266
g0
(g44
g2
Ntp2459
Rp2460
(dp2461
g42
I00
sg48
I01
sg49
I00
sg50
g59
sbsbag0
(g232
g2
Ntp2462
Rp2463
(dp2464
g42
I00
sg48
I01
sg49
I00
sg19
(lp2465
g2265
ag2266
asg43
Nsg2265
g0
(g44
g2
Ntp2466
Rp2467
(dp2468
g42
I00
sg48
I01
sg49
I00
sg50
VRunInfoRcd
p2469
sbsg2266
g0
(g44
g2
Ntp2470
Rp2471
(dp2472
g42
I00
sg48
I01
sg49
I00
sg50
g59
sbsbag0
(g232
g2
Ntp2473
Rp2474
(dp2475
g42
I00
sg48
I01
sg49
I00
sg19
(lp2476
g2265
ag2266
asg43
Nsg2265
g0
(g44
g2
Ntp2477
Rp2478
(dp2479
g42
I00
sg48
I01
sg49
I00
sg50
VSiStripBadChannelRcd
p2480
sbsg2266
g0
(g44
g2
Ntp2481
Rp2482
(dp2483
g42
I00
sg48
I01
sg49
I00
sg50
g59
sbsbag0
(g232
g2
Ntp2484
Rp2485
(dp2486
g42
I00
sg48
I01
sg49
I00
sg19
(lp2487
g2265
ag2266
asg43
Nsg2265
g0
(g44
g2
Ntp2488
Rp2489
(dp2490
g42
I00
sg48
I01
sg49
I00
sg50
VSiStripBadFiberRcd
p2491
sbsg2266
g0
(g44
g2
Ntp2492
Rp2493
(dp2494
g42
I00
sg48
I01
sg49
I00
sg50
g59
sbsbag0
(g232
g2
Ntp2495
Rp2496
(dp2497
g42
I00
sg48
I01
sg49
I00
sg19
(lp2498
g2265
ag2266
asg43
Nsg2265
g0
(g44
g2
Ntp2499
Rp2500
(dp2501
g42
I00
sg48
I01
sg49
I00
sg50
VSiStripBadModuleRcd
p2502
sbsg2266
g0
(g44
g2
Ntp2503
Rp2504
(dp2505
g42
I00
sg48
I01
sg49
I00
sg50
g59
sbsbag0
(g232
g2
Ntp2506
Rp2507
(dp2508
g42
I00
sg48
I01
sg49
I00
sg19
(lp2509
g2265
ag2266
asg43
Nsg2265
g0
(g44
g2
Ntp2510
Rp2511
(dp2512
g42
I00
sg48
I01
sg49
I00
sg50
VSiStripBadStripRcd
p2513
sbsg2266
g0
(g44
g2
Ntp2514
Rp2515
(dp2516
g42
I00
sg48
I01
sg49
I00
sg50
g59
sbsbatp2517
Rp2518
(dp2519
g42
I00
sg48
I01
sg49
I00
sg103
I1
sbsg2432
g0
(g120
g2
Ntp2520
Rp2521
(dp2522
g42
I00
sg48
I01
sg49
I00
sg50
I00
sbsg2433
g0
(g78
g2
Ntp2523
Rp2524
(dp2525
g42
I00
sg48
I01
sg49
I00
sg50
F0.3
sbsg2434
g0
(g120
g2
Ntp2526
Rp2527
(dp2528
g42
I00
sg48
I01
sg49
I00
sg50
I00
sbsg2435
g0
(g120
g2
Ntp2529
Rp2530
(dp2531
g42
I00
sg48
I01
sg49
I00
sg50
I00
sbsg139
g171
sg141
I55
sg142
g2426
sbsVsistripconn
p2532
g0
(g1551
g2
Ntp2533
Rp2534
(dp2535
g17
VSiStripConnectivity
p2536
sg19
(lp2537
sg42
I00
sg43
Nsg49
I00
sg139
g171
sg141
I55
sg142
g2532
sbsVstripCPEESProducer
p2538
g0
(g1551
g2
Ntp2539
Rp2540
(dp2541
g17
g2053
sg19
(lp2542
g2036
ag2055
ag2056
asg42
I00
sg43
Nsg2036
g0
(g44
g2
Ntp2543
Rp2544
(dp2545
g42
I00
sg48
I01
sg49
I00
sg50
VstripCPE
p2546
sbsg49
I00
sg2055
g0
(g44
g2
Ntp2547
Rp2548
(dp2549
g42
I00
sg48
I01
sg49
I00
sg50
VSimpleStripCPE
p2550
sbsg2056
g0
(g232
g2
Ntp2551
Rp2552
(dp2553
g42
I00
sg48
I01
sg49
I00
sg19
(lp2554
sg43
Nsbsg139
g171
sg141
I55
sg142
g2538
sbssV_Process__esprefers
p2555
(dp2556
Ves_prefer_hcalHardcode
p2557
g0
(cFWCore.ParameterSet.Modules
ESPrefer
p2558
g2
Ntp2559
Rp2560
(dp2561
g17
g814
sg19
(lp2562
sg42
I00
sg43
Nsg49
I00
sg139
g171
sg141
I91
sV_targetLabel
p2563
g810
sg142
g2557
sbssV_Process__aliases
p2564
(dp2565
sV_Process__psets
p2566
(dp2567
Voptions
p2568
g0
(g232
g2
Ntp2569
Rp2570
(dp2571
g42
I00
sg48
I00
sg49
I00
sg19
(lp2572
VnumberOfThreads
p2573
aVnumberOfStreams
p2574
aVnumberOfConcurrentRuns
p2575
aVnumberOfConcurrentLuminosityBlocks
p2576
aVeventSetup
p2577
aVaccelerators
p2578
aVwantSummary
p2579
aVfileMode
p2580
aVforceEventSetupCacheClearOnNewRun
p2581
aVthrowIfIllegalParameter
p2582
aVprintDependencies
p2583
aVdeleteNonConsumedUnscheduledModules
p2584
aVsizeOfStackForThreadsInKB
p2585
aVRethrow
p2586
aVTryToContinue
p2587
aVIgnoreCompletely
p2588
aVmodulesToCallForTryToContinue
p2589
aVcanDeleteEarly
p2590
aVholdsReferencesToDeleteEarly
p2591
aVmodulesToIgnoreForDeleteEarly
p2592
aVdumpOptions
p2593
aVallowUnscheduled
p2594
aVemptyRunLumiMode
p2595
aVmakeTriggerResults
p2596
asg43
Nsg2573
g0
(g2019
g2
Ntp2597
Rp2598
(dp2599
g42
I00
sg48
I00
sg49
I00
sg50
I1
sbsg2574
g0
(g2019
g2
Ntp2600
Rp2601
(dp2602
g42
I00
sg48
I00
sg49
I00
sg50
I0
sbsg2575
g0
(g2019
g2
Ntp2603
Rp2604
(dp2605
g42
I00
sg48
I00
sg49
I00
sg50
I1
sbsg2576
g0
(g2019
g2
Ntp2606
Rp2607
(dp2608
g42
I00
sg48
I00
sg49
I00
sg50
I0
sbsg2577
g0
(g232
g2
Ntp2609
Rp2610
(dp2611
g42
I00
sg48
I00
sg49
I00
sg19
(lp2612
VnumberOfConcurrentIOVs
p2613
aVforceNumberOfConcurrentIOVs
p2614
asg43
Nsg2613
g0
(g2019
g2
Ntp2615
Rp2616
(dp2617
g42
I00
sg48
I00
sg49
I00
sg50
I0
sbsg2614
g0
(g232
g2
Ntp2618
Rp2619
(dp2620
g42
I00
sg48
I00
sg49
I00
sg19
(lp2621
sg43
g0
(cFWCore.ParameterSet.Types
_RequiredParameter
p2622
g2
Ntp2623
Rp2624
(dp2625
g42
I00
sg48
I00
sg49
I00
sg137
g2019
sg138
Nsbsbsbsg2578
g0
(g92
g93
(lp2626
V*
p2627
atp2628
Rp2629
(dp2630
g42
I00
sg48
I00
sg49
I00
sg103
I1
sbsg2579
g0
(g120
g2
Ntp2631
Rp2632
(dp2633
g42
I00
sg48
I00
sg49
I00
sg50
I00
sbsg2580
g0
(g44
g2
Ntp2634
Rp2635
(dp2636
g42
I00
sg48
I00
sg49
I00
sg50
VFULLMERGE
p2637
sbsg2581
g0
(g120
g2
Ntp2638
Rp2639
(dp2640
g42
I00
sg48
I00
sg49
I00
sg50
I00
sbsg2582
g0
(g120
g2
Ntp2641
Rp2642
(dp2643
g42
I00
sg48
I00
sg49
I00
sg50
I01
sbsg2583
g0
(g120
g2
Ntp2644
Rp2645
(dp2646
g42
I00
sg48
I00
sg49
I00
sg50
I00
sbsg2584
g0
(g120
g2
Ntp2647
Rp2648
(dp2649
g42
I00
sg48
I00
sg49
I00
sg50
I01
sbsg2585
g0
(g133
g2
Ntp2650
Rp2651
(dp2652
g42
I00
sg48
I00
sg49
I00
sg137
g2019
sg138
Nsbsg2586
g0
(g92
g93
(lp2653
tp2654
Rp2655
(dp2656
g42
I00
sg48
I00
sg49
I00
sg103
I1
sbsg2587
g0
(g92
g93
(lp2657
tp2658
Rp2659
(dp2660
g42
I00
sg48
I00
sg49
I00
sg103
I1
sbsg2588
g0
(g92
g93
(lp2661
tp2662
Rp2663
(dp2664
g42
I00
sg48
I00
sg49
I00
sg103
I1
sbsg2589
g0
(g92
g93
(lp2665
tp2666
Rp2667
(dp2668
g42
I00
sg48
I00
sg49
I00
sg103
I1
sbsg2590
g0
(g92
g93
(lp2669
tp2670
Rp2671
(dp2672
g42
I00
sg48
I00
sg49
I00
sg103
I1
sbsg2591
g0
(g613
g93
(lp2673
tp2674
Rp2675
(dp2676
g42
I00
sg48
I00
sg49
I00
sg103
I1
sbsg2592
g0
(g92
g93
(lp2677
tp2678
Rp2679
(dp2680
g42
I00
sg48
I00
sg49
I00
sg103
I1
sbsg2593
g0
(g120
g2
Ntp2681
Rp2682
(dp2683
g42
I00
sg48
I00
sg49
I00
sg50
I00
sbsg2594
g0
(cFWCore.ParameterSet.Types
_ObsoleteParameter
p2684
g2
Ntp2685
Rp2686
(dp2687
g42
I00
sg48
I00
sg49
I00
sg137
g120
sg138
Nsbsg2595
g0
(g2684
g2
Ntp2688
Rp2689
(dp2690
g42
I00
sg48
I00
sg49
I00
sg137
g44
sg138
Nsbsg2596
g0
(g2684
g2
Ntp2691
Rp2692
(dp2693
g42
I00
sg48
I00
sg49
I00
sg137
g120
sg138
Nsbsg142
g2568
sbsVmaxLuminosityBlocks
p2694
g0
(g232
g2
Ntp2695
Rp2696
(dp2697
g42
I00
sg48
I00
sg49
I00
sg19
(lp2698
Vinput
p2699
asg43
Nsg2699
g0
(g319
g2
Ntp2700
Rp2701
(dp2702
g42
I00
sg48
I00
sg49
I00
sg50
I-1
sbsg142
g2694
sbsVCondDB
p2703
g0
(g232
g2
Ntp2704
Rp2705
(dp2706
g42
I00
sg48
I01
sg49
I00
sg19
(lp2707
g566
ag567
asg43
Nsg566
g0
(g232
g2
Ntp2708
Rp2709
(dp2710
g42
I00
sg48
I01
sg49
I00
sg19
(lp2711
g582
ag583
ag584
ag585
ag586
asg43
Nsg582
g0
(g44
g2
Ntp2712
Rp2713
(dp2714
g42
I00
sg48
I00
sg49
I00
sg50
g59
sbsg583
g0
(g319
g2
Ntp2715
Rp2716
(dp2717
g42
I00
sg48
I00
sg49
I00
sg50
I0
sbsg584
g0
(g44
g2
Ntp2718
Rp2719
(dp2720
g42
I00
sg48
I00
sg49
I00
sg50
g59
sbsg585
g0
(g319
g2
Ntp2721
Rp2722
(dp2723
g42
I00
sg48
I00
sg49
I00
sg50
I0
sbsg586
g0
(g319
g2
Ntp2724
Rp2725
(dp2726
g42
I00
sg48
I00
sg49
I00
sg50
I0
sbsbsg567
g0
(g44
g2
Ntp2727
Rp2728
(dp2729
g42
I00
sg48
I01
sg49
I00
sg50
g59
sbsg142
g2703
sbsg824
g876
sVmaxEvents
p2730
g0
(g232
g2
Ntp2731
Rp2732
(dp2733
g42
I00
sg48
I00
sg49
I01
sg19
(lp2734
g2699
ag503
asg43
Nsg2699
g0
(g133
g2
Ntp2735
Rp2736
(dp2737
g42
I00
sg48
I00
sg49
I00
sg137
g319
sg138
g0
(g319
g2
Ntp2738
Rp2739
(dp2740
g42
I00
sg48
I00
sg49
I00
sg50
I-1
sbsbsg503
g0
(g133
g2
Ntp2741
Rp2742
(dp2743
g42
I00
sg48
I00
sg49
I00
sg137
g0
(cFWCore.ParameterSet.Types
_AllowedParameterTypes
p2744
g2
Ntp2745
Rp2746
(dp2747
V_AllowedParameterTypes__types
p2748
(g319
g232
tp2749
sV_default
p2750
NsV__name__
p2751
Vallowed(cms.int32,cms.PSet)
p2752
sbsg138
Nsbsg142
g2730
sbsVNANOAODEventContent
p2753
g0
(g232
g2
Ntp2754
Rp2755
(dp2756
g42
I00
sg48
I01
sg49
I00
sg19
(lp2757
g214
aVcompressionLevel
p2758
aVcompressionAlgorithm
p2759
asg43
Nsg214
g230
sg2758
g0
(g319
g2
Ntp2760
Rp2761
(dp2762
g42
I00
sg48
I00
sg49
I00
sg50
I9
sbsg2759
g0
(g44
g2
Ntp2763
Rp2764
(dp2765
g42
I00
sg48
I00
sg49
I00
sg50
VLZMA
p2766
sbsg142
g2753
sbsVNANOAODGENEventContent
p2767
g0
(g232
g2
Ntp2768
Rp2769
(dp2770
g42
I00
sg48
I01
sg49
I00
sg19
(lp2771
g2758
ag2759
ag214
asg43
Nsg2758
g0
(g319
g2
Ntp2772
Rp2773
(dp2774
g42
I00
sg48
I00
sg49
I00
sg50
I9
sbsg2759
g0
(g44
g2
Ntp2775
Rp2776
(dp2777
g42
I00
sg48
I00
sg49
I00
sg50
g2766
sbsg214
g0
(g92
g93
(lp2778
g221
ag222
ag224
ag225
ag226
atp2779
Rp2780
(dp2781
g42
I00
sg48
I00
sg49
I00
sg103
I1
sbsg142
g2767
sbsVNANOAODSIMEventContent
p2782
g0
(g232
g2
Ntp2783
Rp2784
(dp2785
g42
I00
sg48
I01
sg49
I00
sg19
(lp2786
g214
ag2758
ag2759
asg43
Nsg214
g0
(g92
g93
(lp2787
g221
ag222
ag223
ag224
ag225
ag226
atp2788
Rp2789
(dp2790
g42
I00
sg48
I00
sg49
I00
sg103
I1
sbsg2758
g0
(g319
g2
Ntp2791
Rp2792
(dp2793
g42
I00
sg48
I00
sg49
I00
sg50
I9
sbsg2759
g0
(g44
g2
Ntp2794
Rp2795
(dp2796
g42
I00
sg48
I00
sg49
I00
sg50
g2766
sbsg142
g2782
sbsVNanoAODEDMEventContent
p2797
g0
(g232
g2
Ntp2798
Rp2799
(dp2800
g42
I00
sg48
I01
sg49
I00
sg19
(lp2801
g214
asg43
Nsg214
g0
(g92
g93
(lp2802
g221
ag222
ag223
ag224
ag225
ag226
atp2803
Rp2804
(dp2805
g42
I00
sg48
I00
sg49
I00
sg103
I1
sbsg142
g2797
sbssV_Process__vpsets
p2806
(dp2807
sV_cloneToObjectDict
p2808
(dp2809
L139662249451280L
g2570
sL139662221085520L
g0
(g232
g2
Ntp2810
Rp2811
(dp2812
g42
I00
sg48
I00
sg49
I00
sg19
(lp2813
g2699
ag503
asg43
Nsg2699
g0
(g133
g2
Ntp2814
Rp2815
(dp2816
g42
I00
sg48
I00
sg49
I00
sg137
g319
sg138
Nsbsg503
g0
(g133
g2
Ntp2817
Rp2818
(dp2819
g42
I00
sg48
I00
sg49
I00
sg137
g0
(g2744
g2
Ntp2820
Rp2821
(dp2822
g2748
(g319
g232
tp2823
sg2750
Nsg2751
Vallowed(cms.int32,cms.PSet)
p2824
sbsg138
Nsbsg142
NsbsL139662221083120L
g2696
sL139662218295616L
g1553
sL139662218115488L
g1597
sL139662248595072L
g1613
sL139662218724064L
g1618
sL139662218723440L
g1626
sL139662382911552L
g1631
sL139662218188976L
g1639
sL139662218114528L
g1676
sL139662218115392L
g1684
sL139662218116160L
g1689
sL139662218115872L
g1697
sL139662248593728L
g1705
sL139662218190320L
g1715
sL139662218115200L
g1720
sL139662218116832L
g1725
sL139662218187872L
g1733
sL139662218295856L
g1738
sL139662217440848L
g1749
sL139662382911792L
g1758
sL139662382911696L
g540
sL139662217336528L
g1766
sL139662382914336L
g1777
sL139662382913712L
g1786
sL139662218724592L
g1795
sL139662382915392L
g1812
sL139662249871392L
g1849
sL139662382912752L
g1879
sL139662249922912L
g1898
sL139662218188928L
g1910
sL139662218188112L
g1927
sL139662218187584L
g1942
sL139662214362160L
g1951
sL139662214364656L
g1971
sL139662214363552L
g1991
sL139662214442864L
g2007
sL139662216948944L
g2705
sL139662214402256L
g2015
sL139662214402496L
g2025
sL139662216946880L
g562
sL139662214442000L
g876
sL139662214441088L
g642
sL139662214580784L
g2033
sL139662214579920L
g2051
sL139662214120784L
g2123
sL139662214121552L
g2201
sL139662214494816L
g812
sL139662214495056L
g2560
sL139662214403504L
g2227
sL139662214120016L
g2242
sL139662214091248L
g2251
sL139662214093312L
g0
(g1551
g2
Ntp2825
Rp2826
(dp2827
g17
g2253
sg19
(lp2828
g2255
ag2256
ag645
asg42
I00
sg43
Nsg2255
g0
(g44
g2
Ntp2829
Rp2830
(dp2831
g42
I00
sg48
I01
sg49
I01
sg50
VforRawToDigi
p2832
sbsg49
I00
sg2256
g0
(g613
g93
(lp2833
g0
(g232
g2
Ntp2834
Rp2835
(dp2836
g42
I00
sg48
I01
sg49
I00
sg19
(lp2837
g2265
ag2266
asg43
Nsg2265
g0
(g44
g2
Ntp2838
Rp2839
(dp2840
g42
I00
sg48
I01
sg49
I00
sg50
g2270
sbsg2266
g0
(g44
g2
Ntp2841
Rp2842
(dp2843
g42
I00
sg48
I01
sg49
I00
sg50
g59
sbsbag0
(g232
g2
Ntp2844
Rp2845
(dp2846
g42
I00
sg48
I01
sg49
I00
sg19
(lp2847
g2265
ag2266
asg43
Nsg2265
g0
(g44
g2
Ntp2848
Rp2849
(dp2850
g42
I00
sg48
I01
sg49
I00
sg50
g2281
sbsg2266
g0
(g44
g2
Ntp2851
Rp2852
(dp2853
g42
I00
sg48
I01
sg49
I00
sg50
g59
sbsbatp2854
Rp2855
(dp2856
g42
I00
sg48
I01
sg49
I00
sg103
I1
sbsg645
g0
(g44
g2
Ntp2857
Rp2858
(dp2859
g42
I00
sg48
I01
sg49
I01
sg50
g2832
sbsg139
V/cvmfs/cms.cern.ch/slc7_amd64_gcc12/cms/cmssw/CMSSW_14_1_0_pre2/src/CalibTracker/SiPixelESProducers/python/siPixelQualityForRawToDigiESProducer_cfi.py
p2860
sg141
I5
sg142
NsbsL139662214548640L
g2293
sL139662214546960L
g2336
sL139662214547728L
g2389
sL139662214091728L
g2428
sL139662214495536L
g2534
sL139662214578864L
g2540
sL139662214178800L
g15
sL139662214178992L
g2732
sL139662250435056L
g180
sL139662214180000L
g2755
sL139662214234608L
g2769
sL139662214179904L
g2784
sL139662214180144L
g2799
sL139662214179472L
g209
sL139662214179712L
g201
ssV_Process__InExtendCall
p2861
I00
sV_Process__partialschedules
p2862
(dp2863
sV_Process__isStrict
p2864
I00
sV_Process__modifiers
p2865
(g0
(cFWCore.ParameterSet.Config
ModifierChain
p2866
g2
Ntp2867
Rp2868
(dp2869
V_ModifierChain__chosen
p2870
I01
sV_ModifierChain__chain
p2871
(g0
(g2866
g2
Ntp2872
Rp2873
(dp2874
g2870
I01
sg2871
(g0
(g2866
g2
Ntp2875
Rp2876
(dp2877
g2870
I01
sg2871
(g0
(g2866
g2
Ntp2878
Rp2879
(dp2880
g2870
I01
sg2871
(g0
(cFWCore.ParameterSet.Config
Modifier
p2881
g2
Ntp2882
Rp2883
(dp2884
V_Modifier__processModifiers
p2885
(lp2886
sV_Modifier__chosen
p2887
I01
sbg0
(g2881
g2
Ntp2888
Rp2889
(dp2890
g2885
(lp2891
sg2887
I01
sbg0
(g2881
g2
Ntp2892
Rp2893
(dp2894
g2885
(lp2895
sg2887
I01
sbg0
(g2881
g2
Ntp2896
Rp2897
(dp2898
g2885
(lp2899
sg2887
I01
sbg0
(g2881
g2
Ntp2900
Rp2901
(dp2902
g2885
(lp2903
sg2887
I01
sbtp2904
sbg0
(g2881
g2
Ntp2905
Rp2906
(dp2907
g2885
(lp2908
sg2887
I01
sbg0
(g2881
g2
Ntp2909
Rp2910
(dp2911
g2885
(lp2912
sg2887
I01
sbg0
(g2881
g2
Ntp2913
Rp2914
(dp2915
g2885
(lp2916
sg2887
I01
sbg0
(g2881
g2
Ntp2917
Rp2918
(dp2919
g2885
(lp2920
sg2887
I01
sbg0
(g2881
g2
Ntp2921
Rp2922
(dp2923
g2885
(lp2924
sg2887
I01
sbg0
(g2881
g2
Ntp2925
Rp2926
(dp2927
g2885
(lp2928
sg2887
I01
sbg0
(g2881
g2
Ntp2929
Rp2930
(dp2931
g2885
(lp2932
sg2887
I01
sbg0
(g2866
g2
Ntp2933
Rp2934
(dp2935
g2870
I01
sg2871
(g0
(g2881
g2
Ntp2936
Rp2937
(dp2938
g2885
(lp2939
sg2887
I01
sbg0
(g2881
g2
Ntp2940
Rp2941
(dp2942
g2885
(lp2943
sg2887
I01
sbg0
(g2881
g2
Ntp2944
Rp2945
(dp2946
g2885
(lp2947
sg2887
I01
sbg0
(g2881
g2
Ntp2948
Rp2949
(dp2950
g2885
(lp2951
sg2887
I01
sbg0
(g2881
g2
Ntp2952
Rp2953
(dp2954
g2885
(lp2955
sg2887
I01
sbg0
(g2881
g2
Ntp2956
Rp2957
(dp2958
g2885
(lp2959
sg2887
I01
sbtp2960
sbg0
(g2881
g2
Ntp2961
Rp2962
(dp2963
g2885
(lp2964
sg2887
I01
sbg0
(g2881
g2
Ntp2965
Rp2966
(dp2967
g2885
(lp2968
sg2887
I01
sbg0
(g2881
g2
Ntp2969
Rp2970
(dp2971
g2885
(lp2972
sg2887
I01
sbg0
(g2881
g2
Ntp2973
Rp2974
(dp2975
g2885
(lp2976
sg2887
I01
sbtp2977
sbg0
(g2881
g2
Ntp2978
Rp2979
(dp2980
g2885
(lp2981
sg2887
I01
sbg0
(g2881
g2
Ntp2982
Rp2983
(dp2984
g2885
(lp2985
sg2887
I01
sbg0
(g2881
g2
Ntp2986
Rp2987
(dp2988
g2885
(lp2989
sg2887
I01
sbg0
(g2881
g2
Ntp2990
Rp2991
(dp2992
g2885
(lp2993
sg2887
I01
sbg0
(g2881
g2
Ntp2994
Rp2995
(dp2996
g2885
(lp2997
sg2887
I01
sbg0
(g2881
g2
Ntp2998
Rp2999
(dp3000
g2885
(lp3001
sg2887
I01
sbg0
(g2881
g2
Ntp3002
Rp3003
(dp3004
g2885
(lp3005
sg2887
I01
sbg0
(g2881
g2
Ntp3006
Rp3007
(dp3008
g2885
(lp3009
sg2887
I01
sbg0
(g2881
g2
Ntp3010
Rp3011
(dp3012
g2885
(lp3013
sg2887
I01
sbtp3014
sbg0
(g2881
g2
Ntp3015
Rp3016
(dp3017
g2885
(lp3018
sg2887
I01
sbg0
(g2881
g2
Ntp3019
Rp3020
(dp3021
g2885
(lp3022
sg2887
I01
sbg0
(g2881
g2
Ntp3023
Rp3024
(dp3025
g2885
(lp3026
sg2887
I01
sbg0
(g2881
g2
Ntp3027
Rp3028
(dp3029
g2885
(lp3030
sg2887
I01
sbg0
(g2881
g2
Ntp3031
Rp3032
(dp3033
g2885
(lp3034
sg2887
I01
sbg0
(g2881
g2
Ntp3035
Rp3036
(dp3037
g2885
(lp3038
sg2887
I01
sbg0
(g2881
g2
Ntp3039
Rp3040
(dp3041
g2885
(lp3042
sg2887
I01
sbg0
(g2881
g2
Ntp3043
Rp3044
(dp3045
g2885
(lp3046
sg2887
I01
sbg0
(g2881
g2
Ntp3047
Rp3048
(dp3049
g2885
(lp3050
sg2887
I01
sbg0
(g2881
g2
Ntp3051
Rp3052
(dp3053
g2885
(lp3054
sg2887
I01
sbg0
(g2881
g2
Ntp3055
Rp3056
(dp3057
g2885
(lp3058
sg2887
I01
sbtp3059
sbtp3060
sV_Process__accelerators
p3061
(dp3062
sg2568
g2570
sg2694
g2696
sg289
g292
sg1550
g1553
sg1595
g1597
sg1611
g1613
sg1616
g1618
sg1624
g1626
sg1629
g1631
sg1637
g1639
sg1674
g1676
sg1682
g1684
sg1687
g1689
sg1695
g1697
sg1703
g1705
sg1713
g1715
sg1718
g1720
sg1723
g1725
sg1731
g1733
sg1736
g1738
sg1747
g1749
sg1756
g1758
sg537
g540
sg1764
g1766
sg1775
g1777
sg1784
g1786
sg1793
g1795
sg1810
g1812
sg1847
g1849
sg1877
g1879
sg1896
g1898
sg1908
g1910
sg1925
g1927
sg1940
g1942
sg1949
g1951
sg1969
g1971
sg1989
g1991
sg2005
g2007
sg2703
g2705
sg2013
g2015
sg2023
g2025
sg560
g562
sg824
g876
sg640
g642
sg2031
g2033
sg2049
g2051
sg2121
g2123
sg2199
g2201
sg810
g812
sg2557
g2560
sg2225
g2227
sg2240
g2242
sg2249
g2251
sg2291
g2293
sg2334
g2336
sg2387
g2389
sg2426
g2428
sg2532
g2534
sg2538
g2540
sg12
g15
sg2730
g2732
sVsource
p3063
g148
sg150
g148
sg198
g180
sg2753
g2755
sg2767
g2769
sg2782
g2784
sg2797
g2799
sg242
g209
sg194
g201
sVschedule
p3064
g249
sb.