(dp0
VServer
p1
Vcmsweb.cern.ch
p2
sVPort
p3
V
p4
sVRequestName
p5
V240414_122559:joshin_crab_muRPCTnPFlatTableProducer_cfg__Muon__Run2022E-27Jun2023-v1__240414-212546
p6
sVvoRole
p7
VNULL
p8
sVvoGroup
p9
g4
sVinstance
p10
Vprod
p11
sVOriginalConfig
p12
ccopy_reg
_reconstructor
p13
(cWMCore.Configuration
Configuration
p14
c__builtin__
object
p15
Ntp16
Rp17
(dp18
V_internal_sections
p19
(lp20
VGeneral
p21
aVJobType
p22
aVData
p23
aVSite
p24
aVUser
p25
aVDebug
p26
asg21
g13
(cWMCore.Configuration
ConfigSection
p27
g15
Ntp28
Rp29
(dp30
V_internal_documentation
p31
g4
sV_internal_name
p32
g21
sV_internal_settings
p33
c__builtin__
set
p34
((lp35
VtransferOutputs
p36
aVrequestName
p37
aVtransferLogs
p38
atp39
Rp40
sV_internal_docstrings
p41
(dp42
sV_internal_children
p43
g34
((lp44
tp45
Rp46
sV_internal_parent_ref
p47
NsV_internal_skipChecks
p48
I00
sg38
I00
sg36
I01
sg37
VmuRPCTnPFlatTableProducer_cfg__Muon__Run2022E-27Jun2023-v1__240414-212546
p49
sbsg22
g13
(g27
g15
Ntp50
Rp51
(dp52
g31
g4
sg32
g22
sg33
g34
((lp53
VpluginName
p54
aVpsetName
p55
atp56
Rp57
sg41
(dp58
sg43
g34
((lp59
tp60
Rp61
sg47
Nsg48
I00
sg54
VAnalysis
p62
sg55
V/u/user/sjws5411/Workspace/Efficiency/CMSSW_14_1_0_pre2/src/RPCDPGAnalysis/NanoAODTnP/test/muRPCTnPFlatTableProducer_cfg.py
p63
sbsg23
g13
(g27
g15
Ntp64
Rp65
(dp66
g31
g4
sg32
g23
sg33
g34
((lp67
Vsplitting
p68
aVinputDataset
p69
aVoutLFNDirBase
p70
aVunitsPerJob
p71
aVallowNonValidInputDataset
p72
aVpublication
p73
aVoutputDatasetTag
p74
atp75
Rp76
sg41
(dp77
sg43
g34
((lp78
tp79
Rp80
sg47
Nsg48
I00
sg73
I00
sg72
I01
sg68
VLumiBased
p81
sg71
I100
sg69
V/Muon/Run2022E-27Jun2023-v1/AOD
p82
sg70
V/store/user/joshin/RPC/TnP-NanoAOD/240414-212546
p83
sg74
VmuRPCTnPFlatTableProducer_cfg__Muon__Run2022E-27Jun2023-v1
p84
sbsg24
g13
(g27
g15
Ntp85
Rp86
(dp87
g31
g4
sg32
g24
sg33
g34
((lp88
VstorageSite
p89
atp90
Rp91
sg41
(dp92
sg43
g34
((lp93
tp94
Rp95
sg47
Nsg48
I00
sg89
VT3_KR_KNU
p96
sbsg25
g13
(g27
g15
Ntp97
Rp98
(dp99
g31
g4
sg32
g25
sg33
g34
((lp100
tp101
Rp102
sg41
(dp103
sg43
g34
((lp104
tp105
Rp106
sg47
Nsg48
I00
sbsg26
g13
(g27
g15
Ntp107
Rp108
(dp109
g31
g4
sg32
g26
sg33
g34
((lp110
tp111
Rp112
sg41
(dp113
sg43
g34
((lp114
tp115
Rp116
sg47
Nsg48
I00
sbsbs.